
bin/main:     file format elf64-x86-64


Disassembly of section .init:

0000000000005000 <_init>:
    5000:	f3 0f 1e fa          	endbr64
    5004:	48 83 ec 08          	sub    $0x8,%rsp
    5008:	48 8b 05 d9 0f 03 00 	mov    0x30fd9(%rip),%rax        # 35fe8 <__gmon_start__@Base>
    500f:	48 85 c0             	test   %rax,%rax
    5012:	74 02                	je     5016 <_init+0x16>
    5014:	ff d0                	call   *%rax
    5016:	48 83 c4 08          	add    $0x8,%rsp
    501a:	c3                   	ret

Disassembly of section .plt:

0000000000005020 <.plt>:
    5020:	ff 35 b2 0c 03 00    	push   0x30cb2(%rip)        # 35cd8 <_GLOBAL_OFFSET_TABLE_+0x8>
    5026:	ff 25 b4 0c 03 00    	jmp    *0x30cb4(%rip)        # 35ce0 <_GLOBAL_OFFSET_TABLE_+0x10>
    502c:	0f 1f 40 00          	nopl   0x0(%rax)
    5030:	f3 0f 1e fa          	endbr64
    5034:	68 00 00 00 00       	push   $0x0
    5039:	e9 e2 ff ff ff       	jmp    5020 <_init+0x20>
    503e:	66 90                	xchg   %ax,%ax
    5040:	f3 0f 1e fa          	endbr64
    5044:	68 01 00 00 00       	push   $0x1
    5049:	e9 d2 ff ff ff       	jmp    5020 <_init+0x20>
    504e:	66 90                	xchg   %ax,%ax
    5050:	f3 0f 1e fa          	endbr64
    5054:	68 02 00 00 00       	push   $0x2
    5059:	e9 c2 ff ff ff       	jmp    5020 <_init+0x20>
    505e:	66 90                	xchg   %ax,%ax
    5060:	f3 0f 1e fa          	endbr64
    5064:	68 03 00 00 00       	push   $0x3
    5069:	e9 b2 ff ff ff       	jmp    5020 <_init+0x20>
    506e:	66 90                	xchg   %ax,%ax
    5070:	f3 0f 1e fa          	endbr64
    5074:	68 04 00 00 00       	push   $0x4
    5079:	e9 a2 ff ff ff       	jmp    5020 <_init+0x20>
    507e:	66 90                	xchg   %ax,%ax
    5080:	f3 0f 1e fa          	endbr64
    5084:	68 05 00 00 00       	push   $0x5
    5089:	e9 92 ff ff ff       	jmp    5020 <_init+0x20>
    508e:	66 90                	xchg   %ax,%ax
    5090:	f3 0f 1e fa          	endbr64
    5094:	68 06 00 00 00       	push   $0x6
    5099:	e9 82 ff ff ff       	jmp    5020 <_init+0x20>
    509e:	66 90                	xchg   %ax,%ax
    50a0:	f3 0f 1e fa          	endbr64
    50a4:	68 07 00 00 00       	push   $0x7
    50a9:	e9 72 ff ff ff       	jmp    5020 <_init+0x20>
    50ae:	66 90                	xchg   %ax,%ax
    50b0:	f3 0f 1e fa          	endbr64
    50b4:	68 08 00 00 00       	push   $0x8
    50b9:	e9 62 ff ff ff       	jmp    5020 <_init+0x20>
    50be:	66 90                	xchg   %ax,%ax
    50c0:	f3 0f 1e fa          	endbr64
    50c4:	68 09 00 00 00       	push   $0x9
    50c9:	e9 52 ff ff ff       	jmp    5020 <_init+0x20>
    50ce:	66 90                	xchg   %ax,%ax
    50d0:	f3 0f 1e fa          	endbr64
    50d4:	68 0a 00 00 00       	push   $0xa
    50d9:	e9 42 ff ff ff       	jmp    5020 <_init+0x20>
    50de:	66 90                	xchg   %ax,%ax
    50e0:	f3 0f 1e fa          	endbr64
    50e4:	68 0b 00 00 00       	push   $0xb
    50e9:	e9 32 ff ff ff       	jmp    5020 <_init+0x20>
    50ee:	66 90                	xchg   %ax,%ax
    50f0:	f3 0f 1e fa          	endbr64
    50f4:	68 0c 00 00 00       	push   $0xc
    50f9:	e9 22 ff ff ff       	jmp    5020 <_init+0x20>
    50fe:	66 90                	xchg   %ax,%ax
    5100:	f3 0f 1e fa          	endbr64
    5104:	68 0d 00 00 00       	push   $0xd
    5109:	e9 12 ff ff ff       	jmp    5020 <_init+0x20>
    510e:	66 90                	xchg   %ax,%ax
    5110:	f3 0f 1e fa          	endbr64
    5114:	68 0e 00 00 00       	push   $0xe
    5119:	e9 02 ff ff ff       	jmp    5020 <_init+0x20>
    511e:	66 90                	xchg   %ax,%ax
    5120:	f3 0f 1e fa          	endbr64
    5124:	68 0f 00 00 00       	push   $0xf
    5129:	e9 f2 fe ff ff       	jmp    5020 <_init+0x20>
    512e:	66 90                	xchg   %ax,%ax
    5130:	f3 0f 1e fa          	endbr64
    5134:	68 10 00 00 00       	push   $0x10
    5139:	e9 e2 fe ff ff       	jmp    5020 <_init+0x20>
    513e:	66 90                	xchg   %ax,%ax
    5140:	f3 0f 1e fa          	endbr64
    5144:	68 11 00 00 00       	push   $0x11
    5149:	e9 d2 fe ff ff       	jmp    5020 <_init+0x20>
    514e:	66 90                	xchg   %ax,%ax
    5150:	f3 0f 1e fa          	endbr64
    5154:	68 12 00 00 00       	push   $0x12
    5159:	e9 c2 fe ff ff       	jmp    5020 <_init+0x20>
    515e:	66 90                	xchg   %ax,%ax
    5160:	f3 0f 1e fa          	endbr64
    5164:	68 13 00 00 00       	push   $0x13
    5169:	e9 b2 fe ff ff       	jmp    5020 <_init+0x20>
    516e:	66 90                	xchg   %ax,%ax
    5170:	f3 0f 1e fa          	endbr64
    5174:	68 14 00 00 00       	push   $0x14
    5179:	e9 a2 fe ff ff       	jmp    5020 <_init+0x20>
    517e:	66 90                	xchg   %ax,%ax
    5180:	f3 0f 1e fa          	endbr64
    5184:	68 15 00 00 00       	push   $0x15
    5189:	e9 92 fe ff ff       	jmp    5020 <_init+0x20>
    518e:	66 90                	xchg   %ax,%ax
    5190:	f3 0f 1e fa          	endbr64
    5194:	68 16 00 00 00       	push   $0x16
    5199:	e9 82 fe ff ff       	jmp    5020 <_init+0x20>
    519e:	66 90                	xchg   %ax,%ax
    51a0:	f3 0f 1e fa          	endbr64
    51a4:	68 17 00 00 00       	push   $0x17
    51a9:	e9 72 fe ff ff       	jmp    5020 <_init+0x20>
    51ae:	66 90                	xchg   %ax,%ax
    51b0:	f3 0f 1e fa          	endbr64
    51b4:	68 18 00 00 00       	push   $0x18
    51b9:	e9 62 fe ff ff       	jmp    5020 <_init+0x20>
    51be:	66 90                	xchg   %ax,%ax
    51c0:	f3 0f 1e fa          	endbr64
    51c4:	68 19 00 00 00       	push   $0x19
    51c9:	e9 52 fe ff ff       	jmp    5020 <_init+0x20>
    51ce:	66 90                	xchg   %ax,%ax
    51d0:	f3 0f 1e fa          	endbr64
    51d4:	68 1a 00 00 00       	push   $0x1a
    51d9:	e9 42 fe ff ff       	jmp    5020 <_init+0x20>
    51de:	66 90                	xchg   %ax,%ax
    51e0:	f3 0f 1e fa          	endbr64
    51e4:	68 1b 00 00 00       	push   $0x1b
    51e9:	e9 32 fe ff ff       	jmp    5020 <_init+0x20>
    51ee:	66 90                	xchg   %ax,%ax
    51f0:	f3 0f 1e fa          	endbr64
    51f4:	68 1c 00 00 00       	push   $0x1c
    51f9:	e9 22 fe ff ff       	jmp    5020 <_init+0x20>
    51fe:	66 90                	xchg   %ax,%ax
    5200:	f3 0f 1e fa          	endbr64
    5204:	68 1d 00 00 00       	push   $0x1d
    5209:	e9 12 fe ff ff       	jmp    5020 <_init+0x20>
    520e:	66 90                	xchg   %ax,%ax
    5210:	f3 0f 1e fa          	endbr64
    5214:	68 1e 00 00 00       	push   $0x1e
    5219:	e9 02 fe ff ff       	jmp    5020 <_init+0x20>
    521e:	66 90                	xchg   %ax,%ax
    5220:	f3 0f 1e fa          	endbr64
    5224:	68 1f 00 00 00       	push   $0x1f
    5229:	e9 f2 fd ff ff       	jmp    5020 <_init+0x20>
    522e:	66 90                	xchg   %ax,%ax
    5230:	f3 0f 1e fa          	endbr64
    5234:	68 20 00 00 00       	push   $0x20
    5239:	e9 e2 fd ff ff       	jmp    5020 <_init+0x20>
    523e:	66 90                	xchg   %ax,%ax
    5240:	f3 0f 1e fa          	endbr64
    5244:	68 21 00 00 00       	push   $0x21
    5249:	e9 d2 fd ff ff       	jmp    5020 <_init+0x20>
    524e:	66 90                	xchg   %ax,%ax
    5250:	f3 0f 1e fa          	endbr64
    5254:	68 22 00 00 00       	push   $0x22
    5259:	e9 c2 fd ff ff       	jmp    5020 <_init+0x20>
    525e:	66 90                	xchg   %ax,%ax
    5260:	f3 0f 1e fa          	endbr64
    5264:	68 23 00 00 00       	push   $0x23
    5269:	e9 b2 fd ff ff       	jmp    5020 <_init+0x20>
    526e:	66 90                	xchg   %ax,%ax
    5270:	f3 0f 1e fa          	endbr64
    5274:	68 24 00 00 00       	push   $0x24
    5279:	e9 a2 fd ff ff       	jmp    5020 <_init+0x20>
    527e:	66 90                	xchg   %ax,%ax
    5280:	f3 0f 1e fa          	endbr64
    5284:	68 25 00 00 00       	push   $0x25
    5289:	e9 92 fd ff ff       	jmp    5020 <_init+0x20>
    528e:	66 90                	xchg   %ax,%ax
    5290:	f3 0f 1e fa          	endbr64
    5294:	68 26 00 00 00       	push   $0x26
    5299:	e9 82 fd ff ff       	jmp    5020 <_init+0x20>
    529e:	66 90                	xchg   %ax,%ax
    52a0:	f3 0f 1e fa          	endbr64
    52a4:	68 27 00 00 00       	push   $0x27
    52a9:	e9 72 fd ff ff       	jmp    5020 <_init+0x20>
    52ae:	66 90                	xchg   %ax,%ax
    52b0:	f3 0f 1e fa          	endbr64
    52b4:	68 28 00 00 00       	push   $0x28
    52b9:	e9 62 fd ff ff       	jmp    5020 <_init+0x20>
    52be:	66 90                	xchg   %ax,%ax
    52c0:	f3 0f 1e fa          	endbr64
    52c4:	68 29 00 00 00       	push   $0x29
    52c9:	e9 52 fd ff ff       	jmp    5020 <_init+0x20>
    52ce:	66 90                	xchg   %ax,%ax
    52d0:	f3 0f 1e fa          	endbr64
    52d4:	68 2a 00 00 00       	push   $0x2a
    52d9:	e9 42 fd ff ff       	jmp    5020 <_init+0x20>
    52de:	66 90                	xchg   %ax,%ax
    52e0:	f3 0f 1e fa          	endbr64
    52e4:	68 2b 00 00 00       	push   $0x2b
    52e9:	e9 32 fd ff ff       	jmp    5020 <_init+0x20>
    52ee:	66 90                	xchg   %ax,%ax
    52f0:	f3 0f 1e fa          	endbr64
    52f4:	68 2c 00 00 00       	push   $0x2c
    52f9:	e9 22 fd ff ff       	jmp    5020 <_init+0x20>
    52fe:	66 90                	xchg   %ax,%ax
    5300:	f3 0f 1e fa          	endbr64
    5304:	68 2d 00 00 00       	push   $0x2d
    5309:	e9 12 fd ff ff       	jmp    5020 <_init+0x20>
    530e:	66 90                	xchg   %ax,%ax
    5310:	f3 0f 1e fa          	endbr64
    5314:	68 2e 00 00 00       	push   $0x2e
    5319:	e9 02 fd ff ff       	jmp    5020 <_init+0x20>
    531e:	66 90                	xchg   %ax,%ax
    5320:	f3 0f 1e fa          	endbr64
    5324:	68 2f 00 00 00       	push   $0x2f
    5329:	e9 f2 fc ff ff       	jmp    5020 <_init+0x20>
    532e:	66 90                	xchg   %ax,%ax
    5330:	f3 0f 1e fa          	endbr64
    5334:	68 30 00 00 00       	push   $0x30
    5339:	e9 e2 fc ff ff       	jmp    5020 <_init+0x20>
    533e:	66 90                	xchg   %ax,%ax
    5340:	f3 0f 1e fa          	endbr64
    5344:	68 31 00 00 00       	push   $0x31
    5349:	e9 d2 fc ff ff       	jmp    5020 <_init+0x20>
    534e:	66 90                	xchg   %ax,%ax
    5350:	f3 0f 1e fa          	endbr64
    5354:	68 32 00 00 00       	push   $0x32
    5359:	e9 c2 fc ff ff       	jmp    5020 <_init+0x20>
    535e:	66 90                	xchg   %ax,%ax
    5360:	f3 0f 1e fa          	endbr64
    5364:	68 33 00 00 00       	push   $0x33
    5369:	e9 b2 fc ff ff       	jmp    5020 <_init+0x20>
    536e:	66 90                	xchg   %ax,%ax
    5370:	f3 0f 1e fa          	endbr64
    5374:	68 34 00 00 00       	push   $0x34
    5379:	e9 a2 fc ff ff       	jmp    5020 <_init+0x20>
    537e:	66 90                	xchg   %ax,%ax
    5380:	f3 0f 1e fa          	endbr64
    5384:	68 35 00 00 00       	push   $0x35
    5389:	e9 92 fc ff ff       	jmp    5020 <_init+0x20>
    538e:	66 90                	xchg   %ax,%ax
    5390:	f3 0f 1e fa          	endbr64
    5394:	68 36 00 00 00       	push   $0x36
    5399:	e9 82 fc ff ff       	jmp    5020 <_init+0x20>
    539e:	66 90                	xchg   %ax,%ax
    53a0:	f3 0f 1e fa          	endbr64
    53a4:	68 37 00 00 00       	push   $0x37
    53a9:	e9 72 fc ff ff       	jmp    5020 <_init+0x20>
    53ae:	66 90                	xchg   %ax,%ax
    53b0:	f3 0f 1e fa          	endbr64
    53b4:	68 38 00 00 00       	push   $0x38
    53b9:	e9 62 fc ff ff       	jmp    5020 <_init+0x20>
    53be:	66 90                	xchg   %ax,%ax
    53c0:	f3 0f 1e fa          	endbr64
    53c4:	68 39 00 00 00       	push   $0x39
    53c9:	e9 52 fc ff ff       	jmp    5020 <_init+0x20>
    53ce:	66 90                	xchg   %ax,%ax
    53d0:	f3 0f 1e fa          	endbr64
    53d4:	68 3a 00 00 00       	push   $0x3a
    53d9:	e9 42 fc ff ff       	jmp    5020 <_init+0x20>
    53de:	66 90                	xchg   %ax,%ax
    53e0:	f3 0f 1e fa          	endbr64
    53e4:	68 3b 00 00 00       	push   $0x3b
    53e9:	e9 32 fc ff ff       	jmp    5020 <_init+0x20>
    53ee:	66 90                	xchg   %ax,%ax
    53f0:	f3 0f 1e fa          	endbr64
    53f4:	68 3c 00 00 00       	push   $0x3c
    53f9:	e9 22 fc ff ff       	jmp    5020 <_init+0x20>
    53fe:	66 90                	xchg   %ax,%ax
    5400:	f3 0f 1e fa          	endbr64
    5404:	68 3d 00 00 00       	push   $0x3d
    5409:	e9 12 fc ff ff       	jmp    5020 <_init+0x20>
    540e:	66 90                	xchg   %ax,%ax
    5410:	f3 0f 1e fa          	endbr64
    5414:	68 3e 00 00 00       	push   $0x3e
    5419:	e9 02 fc ff ff       	jmp    5020 <_init+0x20>
    541e:	66 90                	xchg   %ax,%ax
    5420:	f3 0f 1e fa          	endbr64
    5424:	68 3f 00 00 00       	push   $0x3f
    5429:	e9 f2 fb ff ff       	jmp    5020 <_init+0x20>
    542e:	66 90                	xchg   %ax,%ax
    5430:	f3 0f 1e fa          	endbr64
    5434:	68 40 00 00 00       	push   $0x40
    5439:	e9 e2 fb ff ff       	jmp    5020 <_init+0x20>
    543e:	66 90                	xchg   %ax,%ax
    5440:	f3 0f 1e fa          	endbr64
    5444:	68 41 00 00 00       	push   $0x41
    5449:	e9 d2 fb ff ff       	jmp    5020 <_init+0x20>
    544e:	66 90                	xchg   %ax,%ax
    5450:	f3 0f 1e fa          	endbr64
    5454:	68 42 00 00 00       	push   $0x42
    5459:	e9 c2 fb ff ff       	jmp    5020 <_init+0x20>
    545e:	66 90                	xchg   %ax,%ax
    5460:	f3 0f 1e fa          	endbr64
    5464:	68 43 00 00 00       	push   $0x43
    5469:	e9 b2 fb ff ff       	jmp    5020 <_init+0x20>
    546e:	66 90                	xchg   %ax,%ax
    5470:	f3 0f 1e fa          	endbr64
    5474:	68 44 00 00 00       	push   $0x44
    5479:	e9 a2 fb ff ff       	jmp    5020 <_init+0x20>
    547e:	66 90                	xchg   %ax,%ax
    5480:	f3 0f 1e fa          	endbr64
    5484:	68 45 00 00 00       	push   $0x45
    5489:	e9 92 fb ff ff       	jmp    5020 <_init+0x20>
    548e:	66 90                	xchg   %ax,%ax
    5490:	f3 0f 1e fa          	endbr64
    5494:	68 46 00 00 00       	push   $0x46
    5499:	e9 82 fb ff ff       	jmp    5020 <_init+0x20>
    549e:	66 90                	xchg   %ax,%ax
    54a0:	f3 0f 1e fa          	endbr64
    54a4:	68 47 00 00 00       	push   $0x47
    54a9:	e9 72 fb ff ff       	jmp    5020 <_init+0x20>
    54ae:	66 90                	xchg   %ax,%ax
    54b0:	f3 0f 1e fa          	endbr64
    54b4:	68 48 00 00 00       	push   $0x48
    54b9:	e9 62 fb ff ff       	jmp    5020 <_init+0x20>
    54be:	66 90                	xchg   %ax,%ax
    54c0:	f3 0f 1e fa          	endbr64
    54c4:	68 49 00 00 00       	push   $0x49
    54c9:	e9 52 fb ff ff       	jmp    5020 <_init+0x20>
    54ce:	66 90                	xchg   %ax,%ax
    54d0:	f3 0f 1e fa          	endbr64
    54d4:	68 4a 00 00 00       	push   $0x4a
    54d9:	e9 42 fb ff ff       	jmp    5020 <_init+0x20>
    54de:	66 90                	xchg   %ax,%ax
    54e0:	f3 0f 1e fa          	endbr64
    54e4:	68 4b 00 00 00       	push   $0x4b
    54e9:	e9 32 fb ff ff       	jmp    5020 <_init+0x20>
    54ee:	66 90                	xchg   %ax,%ax
    54f0:	f3 0f 1e fa          	endbr64
    54f4:	68 4c 00 00 00       	push   $0x4c
    54f9:	e9 22 fb ff ff       	jmp    5020 <_init+0x20>
    54fe:	66 90                	xchg   %ax,%ax
    5500:	f3 0f 1e fa          	endbr64
    5504:	68 4d 00 00 00       	push   $0x4d
    5509:	e9 12 fb ff ff       	jmp    5020 <_init+0x20>
    550e:	66 90                	xchg   %ax,%ax
    5510:	f3 0f 1e fa          	endbr64
    5514:	68 4e 00 00 00       	push   $0x4e
    5519:	e9 02 fb ff ff       	jmp    5020 <_init+0x20>
    551e:	66 90                	xchg   %ax,%ax
    5520:	f3 0f 1e fa          	endbr64
    5524:	68 4f 00 00 00       	push   $0x4f
    5529:	e9 f2 fa ff ff       	jmp    5020 <_init+0x20>
    552e:	66 90                	xchg   %ax,%ax
    5530:	f3 0f 1e fa          	endbr64
    5534:	68 50 00 00 00       	push   $0x50
    5539:	e9 e2 fa ff ff       	jmp    5020 <_init+0x20>
    553e:	66 90                	xchg   %ax,%ax
    5540:	f3 0f 1e fa          	endbr64
    5544:	68 51 00 00 00       	push   $0x51
    5549:	e9 d2 fa ff ff       	jmp    5020 <_init+0x20>
    554e:	66 90                	xchg   %ax,%ax
    5550:	f3 0f 1e fa          	endbr64
    5554:	68 52 00 00 00       	push   $0x52
    5559:	e9 c2 fa ff ff       	jmp    5020 <_init+0x20>
    555e:	66 90                	xchg   %ax,%ax
    5560:	f3 0f 1e fa          	endbr64
    5564:	68 53 00 00 00       	push   $0x53
    5569:	e9 b2 fa ff ff       	jmp    5020 <_init+0x20>
    556e:	66 90                	xchg   %ax,%ax
    5570:	f3 0f 1e fa          	endbr64
    5574:	68 54 00 00 00       	push   $0x54
    5579:	e9 a2 fa ff ff       	jmp    5020 <_init+0x20>
    557e:	66 90                	xchg   %ax,%ax
    5580:	f3 0f 1e fa          	endbr64
    5584:	68 55 00 00 00       	push   $0x55
    5589:	e9 92 fa ff ff       	jmp    5020 <_init+0x20>
    558e:	66 90                	xchg   %ax,%ax
    5590:	f3 0f 1e fa          	endbr64
    5594:	68 56 00 00 00       	push   $0x56
    5599:	e9 82 fa ff ff       	jmp    5020 <_init+0x20>
    559e:	66 90                	xchg   %ax,%ax
    55a0:	f3 0f 1e fa          	endbr64
    55a4:	68 57 00 00 00       	push   $0x57
    55a9:	e9 72 fa ff ff       	jmp    5020 <_init+0x20>
    55ae:	66 90                	xchg   %ax,%ax
    55b0:	f3 0f 1e fa          	endbr64
    55b4:	68 58 00 00 00       	push   $0x58
    55b9:	e9 62 fa ff ff       	jmp    5020 <_init+0x20>
    55be:	66 90                	xchg   %ax,%ax
    55c0:	f3 0f 1e fa          	endbr64
    55c4:	68 59 00 00 00       	push   $0x59
    55c9:	e9 52 fa ff ff       	jmp    5020 <_init+0x20>
    55ce:	66 90                	xchg   %ax,%ax
    55d0:	f3 0f 1e fa          	endbr64
    55d4:	68 5a 00 00 00       	push   $0x5a
    55d9:	e9 42 fa ff ff       	jmp    5020 <_init+0x20>
    55de:	66 90                	xchg   %ax,%ax

Disassembly of section .plt.got:

00000000000055e0 <__cxa_finalize@plt>:
    55e0:	f3 0f 1e fa          	endbr64
    55e4:	ff 25 d6 09 03 00    	jmp    *0x309d6(%rip)        # 35fc0 <__cxa_finalize@GLIBC_2.2.5>
    55ea:	66 0f 1f 44 00 00    	nopw   0x0(%rax,%rax,1)

Disassembly of section .plt.sec:

00000000000055f0 <_Znam@plt>:
    55f0:	f3 0f 1e fa          	endbr64
    55f4:	ff 25 ee 06 03 00    	jmp    *0x306ee(%rip)        # 35ce8 <_Znam@GLIBCXX_3.4>
    55fa:	66 0f 1f 44 00 00    	nopw   0x0(%rax,%rax,1)

0000000000005600 <glDrawArrays@plt>:
    5600:	f3 0f 1e fa          	endbr64
    5604:	ff 25 e6 06 03 00    	jmp    *0x306e6(%rip)        # 35cf0 <glDrawArrays@Base>
    560a:	66 0f 1f 44 00 00    	nopw   0x0(%rax,%rax,1)

0000000000005610 <_ZSt29_Rb_tree_insert_and_rebalancebPSt18_Rb_tree_node_baseS0_RS_@plt>:
    5610:	f3 0f 1e fa          	endbr64
    5614:	ff 25 de 06 03 00    	jmp    *0x306de(%rip)        # 35cf8 <_ZSt29_Rb_tree_insert_and_rebalancebPSt18_Rb_tree_node_baseS0_RS_@GLIBCXX_3.4>
    561a:	66 0f 1f 44 00 00    	nopw   0x0(%rax,%rax,1)

0000000000005620 <_ZNSaIcED2Ev@plt>:
    5620:	f3 0f 1e fa          	endbr64
    5624:	ff 25 d6 06 03 00    	jmp    *0x306d6(%rip)        # 35d00 <_ZNSaIcED2Ev@GLIBCXX_3.4>
    562a:	66 0f 1f 44 00 00    	nopw   0x0(%rax,%rax,1)

0000000000005630 <_ZNSirsERf@plt>:
    5630:	f3 0f 1e fa          	endbr64
    5634:	ff 25 ce 06 03 00    	jmp    *0x306ce(%rip)        # 35d08 <_ZNSirsERf@GLIBCXX_3.4>
    563a:	66 0f 1f 44 00 00    	nopw   0x0(%rax,%rax,1)

0000000000005640 <_ZNSt14basic_ifstreamIcSt11char_traitsIcEE5closeEv@plt>:
    5640:	f3 0f 1e fa          	endbr64
    5644:	ff 25 c6 06 03 00    	jmp    *0x306c6(%rip)        # 35d10 <_ZNSt14basic_ifstreamIcSt11char_traitsIcEE5closeEv@GLIBCXX_3.4>
    564a:	66 0f 1f 44 00 00    	nopw   0x0(%rax,%rax,1)

0000000000005650 <_ZNSolsEPSt15basic_streambufIcSt11char_traitsIcEE@plt>:
    5650:	f3 0f 1e fa          	endbr64
    5654:	ff 25 be 06 03 00    	jmp    *0x306be(%rip)        # 35d18 <_ZNSolsEPSt15basic_streambufIcSt11char_traitsIcEE@GLIBCXX_3.4>
    565a:	66 0f 1f 44 00 00    	nopw   0x0(%rax,%rax,1)

0000000000005660 <sin@plt>:
    5660:	f3 0f 1e fa          	endbr64
    5664:	ff 25 b6 06 03 00    	jmp    *0x306b6(%rip)        # 35d20 <sin@GLIBC_2.2.5>
    566a:	66 0f 1f 44 00 00    	nopw   0x0(%rax,%rax,1)

0000000000005670 <_ZNSolsEm@plt>:
    5670:	f3 0f 1e fa          	endbr64
    5674:	ff 25 ae 06 03 00    	jmp    *0x306ae(%rip)        # 35d28 <_ZNSolsEm@GLIBCXX_3.4>
    567a:	66 0f 1f 44 00 00    	nopw   0x0(%rax,%rax,1)

0000000000005680 <_ZNSt14basic_ifstreamIcSt11char_traitsIcEED1Ev@plt>:
    5680:	f3 0f 1e fa          	endbr64
    5684:	ff 25 a6 06 03 00    	jmp    *0x306a6(%rip)        # 35d30 <_ZNSt14basic_ifstreamIcSt11char_traitsIcEED1Ev@GLIBCXX_3.4>
    568a:	66 0f 1f 44 00 00    	nopw   0x0(%rax,%rax,1)

0000000000005690 <glfwSetErrorCallback@plt>:
    5690:	f3 0f 1e fa          	endbr64
    5694:	ff 25 9e 06 03 00    	jmp    *0x3069e(%rip)        # 35d38 <glfwSetErrorCallback@Base>
    569a:	66 0f 1f 44 00 00    	nopw   0x0(%rax,%rax,1)

00000000000056a0 <glClear@plt>:
    56a0:	f3 0f 1e fa          	endbr64
    56a4:	ff 25 96 06 03 00    	jmp    *0x30696(%rip)        # 35d40 <glClear@Base>
    56aa:	66 0f 1f 44 00 00    	nopw   0x0(%rax,%rax,1)

00000000000056b0 <glDisable@plt>:
    56b0:	f3 0f 1e fa          	endbr64
    56b4:	ff 25 8e 06 03 00    	jmp    *0x3068e(%rip)        # 35d48 <glDisable@Base>
    56ba:	66 0f 1f 44 00 00    	nopw   0x0(%rax,%rax,1)

00000000000056c0 <glViewport@plt>:
    56c0:	f3 0f 1e fa          	endbr64
    56c4:	ff 25 86 06 03 00    	jmp    *0x30686(%rip)        # 35d50 <glViewport@Base>
    56ca:	66 0f 1f 44 00 00    	nopw   0x0(%rax,%rax,1)

00000000000056d0 <glfwDestroyWindow@plt>:
    56d0:	f3 0f 1e fa          	endbr64
    56d4:	ff 25 7e 06 03 00    	jmp    *0x3067e(%rip)        # 35d58 <glfwDestroyWindow@Base>
    56da:	66 0f 1f 44 00 00    	nopw   0x0(%rax,%rax,1)

00000000000056e0 <glfwSetKeyCallback@plt>:
    56e0:	f3 0f 1e fa          	endbr64
    56e4:	ff 25 76 06 03 00    	jmp    *0x30676(%rip)        # 35d60 <glfwSetKeyCallback@Base>
    56ea:	66 0f 1f 44 00 00    	nopw   0x0(%rax,%rax,1)

00000000000056f0 <_ZSt17__throw_bad_allocv@plt>:
    56f0:	f3 0f 1e fa          	endbr64
    56f4:	ff 25 6e 06 03 00    	jmp    *0x3066e(%rip)        # 35d68 <_ZSt17__throw_bad_allocv@GLIBCXX_3.4>
    56fa:	66 0f 1f 44 00 00    	nopw   0x0(%rax,%rax,1)

0000000000005700 <__cxa_begin_catch@plt>:
    5700:	f3 0f 1e fa          	endbr64
    5704:	ff 25 66 06 03 00    	jmp    *0x30666(%rip)        # 35d70 <__cxa_begin_catch@CXXABI_1.3>
    570a:	66 0f 1f 44 00 00    	nopw   0x0(%rax,%rax,1)

0000000000005710 <strlen@plt>:
    5710:	f3 0f 1e fa          	endbr64
    5714:	ff 25 5e 06 03 00    	jmp    *0x3065e(%rip)        # 35d78 <strlen@GLIBC_2.2.5>
    571a:	66 0f 1f 44 00 00    	nopw   0x0(%rax,%rax,1)

0000000000005720 <_ZNKSt9basic_iosIcSt11char_traitsIcEEntEv@plt>:
    5720:	f3 0f 1e fa          	endbr64
    5724:	ff 25 56 06 03 00    	jmp    *0x30656(%rip)        # 35d80 <_ZNKSt9basic_iosIcSt11char_traitsIcEEntEv@GLIBCXX_3.4>
    572a:	66 0f 1f 44 00 00    	nopw   0x0(%rax,%rax,1)

0000000000005730 <__cxa_allocate_exception@plt>:
    5730:	f3 0f 1e fa          	endbr64
    5734:	ff 25 4e 06 03 00    	jmp    *0x3064e(%rip)        # 35d88 <__cxa_allocate_exception@CXXABI_1.3>
    573a:	66 0f 1f 44 00 00    	nopw   0x0(%rax,%rax,1)

0000000000005740 <_ZSt20__throw_length_errorPKc@plt>:
    5740:	f3 0f 1e fa          	endbr64
    5744:	ff 25 46 06 03 00    	jmp    *0x30646(%rip)        # 35d90 <_ZSt20__throw_length_errorPKc@GLIBCXX_3.4>
    574a:	66 0f 1f 44 00 00    	nopw   0x0(%rax,%rax,1)

0000000000005750 <_ZNSaIcEC1ERKS_@plt>:
    5750:	f3 0f 1e fa          	endbr64
    5754:	ff 25 3e 06 03 00    	jmp    *0x3063e(%rip)        # 35d98 <_ZNSaIcEC1ERKS_@GLIBCXX_3.4>
    575a:	66 0f 1f 44 00 00    	nopw   0x0(%rax,%rax,1)

0000000000005760 <glfwMakeContextCurrent@plt>:
    5760:	f3 0f 1e fa          	endbr64
    5764:	ff 25 36 06 03 00    	jmp    *0x30636(%rip)        # 35da0 <glfwMakeContextCurrent@Base>
    576a:	66 0f 1f 44 00 00    	nopw   0x0(%rax,%rax,1)

0000000000005770 <_ZNSirsERi@plt>:
    5770:	f3 0f 1e fa          	endbr64
    5774:	ff 25 2e 06 03 00    	jmp    *0x3062e(%rip)        # 35da8 <_ZNSirsERi@GLIBCXX_3.4>
    577a:	66 0f 1f 44 00 00    	nopw   0x0(%rax,%rax,1)

0000000000005780 <glGetString@plt>:
    5780:	f3 0f 1e fa          	endbr64
    5784:	ff 25 26 06 03 00    	jmp    *0x30626(%rip)        # 35db0 <glGetString@Base>
    578a:	66 0f 1f 44 00 00    	nopw   0x0(%rax,%rax,1)

0000000000005790 <glDepthFunc@plt>:
    5790:	f3 0f 1e fa          	endbr64
    5794:	ff 25 1e 06 03 00    	jmp    *0x3061e(%rip)        # 35db8 <glDepthFunc@Base>
    579a:	66 0f 1f 44 00 00    	nopw   0x0(%rax,%rax,1)

00000000000057a0 <__assert_fail@plt>:
    57a0:	f3 0f 1e fa          	endbr64
    57a4:	ff 25 16 06 03 00    	jmp    *0x30616(%rip)        # 35dc0 <__assert_fail@GLIBC_2.2.5>
    57aa:	66 0f 1f 44 00 00    	nopw   0x0(%rax,%rax,1)

00000000000057b0 <_ZSt18_Rb_tree_incrementPSt18_Rb_tree_node_base@plt>:
    57b0:	f3 0f 1e fa          	endbr64
    57b4:	ff 25 0e 06 03 00    	jmp    *0x3060e(%rip)        # 35dc8 <_ZSt18_Rb_tree_incrementPSt18_Rb_tree_node_base@GLIBCXX_3.4>
    57ba:	66 0f 1f 44 00 00    	nopw   0x0(%rax,%rax,1)

00000000000057c0 <_ZNSt7__cxx1118basic_stringstreamIcSt11char_traitsIcESaIcEEC1Ev@plt>:
    57c0:	f3 0f 1e fa          	endbr64
    57c4:	ff 25 06 06 03 00    	jmp    *0x30606(%rip)        # 35dd0 <_ZNSt7__cxx1118basic_stringstreamIcSt11char_traitsIcESaIcEEC1Ev@GLIBCXX_3.4.26>
    57ca:	66 0f 1f 44 00 00    	nopw   0x0(%rax,%rax,1)

00000000000057d0 <_ZSt19__throw_logic_errorPKc@plt>:
    57d0:	f3 0f 1e fa          	endbr64
    57d4:	ff 25 fe 05 03 00    	jmp    *0x305fe(%rip)        # 35dd8 <_ZSt19__throw_logic_errorPKc@GLIBCXX_3.4>
    57da:	66 0f 1f 44 00 00    	nopw   0x0(%rax,%rax,1)

00000000000057e0 <__cxa_free_exception@plt>:
    57e0:	f3 0f 1e fa          	endbr64
    57e4:	ff 25 f6 05 03 00    	jmp    *0x305f6(%rip)        # 35de0 <__cxa_free_exception@CXXABI_1.3>
    57ea:	66 0f 1f 44 00 00    	nopw   0x0(%rax,%rax,1)

00000000000057f0 <cosf@plt>:
    57f0:	f3 0f 1e fa          	endbr64
    57f4:	ff 25 ee 05 03 00    	jmp    *0x305ee(%rip)        # 35de8 <cosf@GLIBC_2.2.5>
    57fa:	66 0f 1f 44 00 00    	nopw   0x0(%rax,%rax,1)

0000000000005800 <_ZNSolsEf@plt>:
    5800:	f3 0f 1e fa          	endbr64
    5804:	ff 25 e6 05 03 00    	jmp    *0x305e6(%rip)        # 35df0 <_ZNSolsEf@GLIBCXX_3.4>
    580a:	66 0f 1f 44 00 00    	nopw   0x0(%rax,%rax,1)

0000000000005810 <_ZNSt7__cxx1118basic_stringstreamIcSt11char_traitsIcESaIcEED1Ev@plt>:
    5810:	f3 0f 1e fa          	endbr64
    5814:	ff 25 de 05 03 00    	jmp    *0x305de(%rip)        # 35df8 <_ZNSt7__cxx1118basic_stringstreamIcSt11char_traitsIcESaIcEED1Ev@GLIBCXX_3.4.21>
    581a:	66 0f 1f 44 00 00    	nopw   0x0(%rax,%rax,1)

0000000000005820 <_ZSt28__throw_bad_array_new_lengthv@plt>:
    5820:	f3 0f 1e fa          	endbr64
    5824:	ff 25 d6 05 03 00    	jmp    *0x305d6(%rip)        # 35e00 <_ZSt28__throw_bad_array_new_lengthv@GLIBCXX_3.4.29>
    582a:	66 0f 1f 44 00 00    	nopw   0x0(%rax,%rax,1)

0000000000005830 <glPolygonMode@plt>:
    5830:	f3 0f 1e fa          	endbr64
    5834:	ff 25 ce 05 03 00    	jmp    *0x305ce(%rip)        # 35e08 <glPolygonMode@Base>
    583a:	66 0f 1f 44 00 00    	nopw   0x0(%rax,%rax,1)

0000000000005840 <memcpy@plt>:
    5840:	f3 0f 1e fa          	endbr64
    5844:	ff 25 c6 05 03 00    	jmp    *0x305c6(%rip)        # 35e10 <memcpy@GLIBC_2.14>
    584a:	66 0f 1f 44 00 00    	nopw   0x0(%rax,%rax,1)

0000000000005850 <sinf@plt>:
    5850:	f3 0f 1e fa          	endbr64
    5854:	ff 25 be 05 03 00    	jmp    *0x305be(%rip)        # 35e18 <sinf@GLIBC_2.2.5>
    585a:	66 0f 1f 44 00 00    	nopw   0x0(%rax,%rax,1)

0000000000005860 <glfwWindowHint@plt>:
    5860:	f3 0f 1e fa          	endbr64
    5864:	ff 25 b6 05 03 00    	jmp    *0x305b6(%rip)        # 35e20 <glfwWindowHint@Base>
    586a:	66 0f 1f 44 00 00    	nopw   0x0(%rax,%rax,1)

0000000000005870 <glewInit@plt>:
    5870:	f3 0f 1e fa          	endbr64
    5874:	ff 25 ae 05 03 00    	jmp    *0x305ae(%rip)        # 35e28 <glewInit@Base>
    587a:	66 0f 1f 44 00 00    	nopw   0x0(%rax,%rax,1)

0000000000005880 <__cxa_atexit@plt>:
    5880:	f3 0f 1e fa          	endbr64
    5884:	ff 25 a6 05 03 00    	jmp    *0x305a6(%rip)        # 35e30 <__cxa_atexit@GLIBC_2.2.5>
    588a:	66 0f 1f 44 00 00    	nopw   0x0(%rax,%rax,1)

0000000000005890 <_ZStlsIcSt11char_traitsIcESaIcEERSt13basic_ostreamIT_T0_ES7_RKNSt7__cxx1112basic_stringIS4_S5_T1_EE@plt>:
    5890:	f3 0f 1e fa          	endbr64
    5894:	ff 25 9e 05 03 00    	jmp    *0x3059e(%rip)        # 35e38 <_ZStlsIcSt11char_traitsIcESaIcEERSt13basic_ostreamIT_T0_ES7_RKNSt7__cxx1112basic_stringIS4_S5_T1_EE@GLIBCXX_3.4.21>
    589a:	66 0f 1f 44 00 00    	nopw   0x0(%rax,%rax,1)

00000000000058a0 <glEnable@plt>:
    58a0:	f3 0f 1e fa          	endbr64
    58a4:	ff 25 96 05 03 00    	jmp    *0x30596(%rip)        # 35e40 <glEnable@Base>
    58aa:	66 0f 1f 44 00 00    	nopw   0x0(%rax,%rax,1)

00000000000058b0 <_ZdlPv@plt>:
    58b0:	f3 0f 1e fa          	endbr64
    58b4:	ff 25 8e 05 03 00    	jmp    *0x3058e(%rip)        # 35e48 <_ZdlPv@GLIBCXX_3.4>
    58ba:	66 0f 1f 44 00 00    	nopw   0x0(%rax,%rax,1)

00000000000058c0 <glfwPollEvents@plt>:
    58c0:	f3 0f 1e fa          	endbr64
    58c4:	ff 25 86 05 03 00    	jmp    *0x30586(%rip)        # 35e50 <glfwPollEvents@Base>
    58ca:	66 0f 1f 44 00 00    	nopw   0x0(%rax,%rax,1)

00000000000058d0 <_ZStlsISt11char_traitsIcEERSt13basic_ostreamIcT_ES5_PKc@plt>:
    58d0:	f3 0f 1e fa          	endbr64
    58d4:	ff 25 7e 05 03 00    	jmp    *0x3057e(%rip)        # 35e58 <_ZStlsISt11char_traitsIcEERSt13basic_ostreamIcT_ES5_PKc@GLIBCXX_3.4>
    58da:	66 0f 1f 44 00 00    	nopw   0x0(%rax,%rax,1)

00000000000058e0 <_Znwm@plt>:
    58e0:	f3 0f 1e fa          	endbr64
    58e4:	ff 25 76 05 03 00    	jmp    *0x30576(%rip)        # 35e60 <_Znwm@GLIBCXX_3.4>
    58ea:	66 0f 1f 44 00 00    	nopw   0x0(%rax,%rax,1)

00000000000058f0 <_ZdlPvm@plt>:
    58f0:	f3 0f 1e fa          	endbr64
    58f4:	ff 25 6e 05 03 00    	jmp    *0x3056e(%rip)        # 35e68 <_ZdlPvm@CXXABI_1.3.9>
    58fa:	66 0f 1f 44 00 00    	nopw   0x0(%rax,%rax,1)

0000000000005900 <glfwTerminate@plt>:
    5900:	f3 0f 1e fa          	endbr64
    5904:	ff 25 66 05 03 00    	jmp    *0x30566(%rip)        # 35e70 <glfwTerminate@Base>
    590a:	66 0f 1f 44 00 00    	nopw   0x0(%rax,%rax,1)

0000000000005910 <_ZStlsISt11char_traitsIcEERSt13basic_ostreamIcT_ES5_PKh@plt>:
    5910:	f3 0f 1e fa          	endbr64
    5914:	ff 25 5e 05 03 00    	jmp    *0x3055e(%rip)        # 35e78 <_ZStlsISt11char_traitsIcEERSt13basic_ostreamIcT_ES5_PKh@GLIBCXX_3.4>
    591a:	66 0f 1f 44 00 00    	nopw   0x0(%rax,%rax,1)

0000000000005920 <_ZSt18_Rb_tree_decrementPSt18_Rb_tree_node_base@plt>:
    5920:	f3 0f 1e fa          	endbr64
    5924:	ff 25 56 05 03 00    	jmp    *0x30556(%rip)        # 35e80 <_ZSt18_Rb_tree_decrementPSt18_Rb_tree_node_base@GLIBCXX_3.4>
    592a:	66 0f 1f 44 00 00    	nopw   0x0(%rax,%rax,1)

0000000000005930 <_ZNSolsEPFRSoS_E@plt>:
    5930:	f3 0f 1e fa          	endbr64
    5934:	ff 25 4e 05 03 00    	jmp    *0x3054e(%rip)        # 35e88 <_ZNSolsEPFRSoS_E@GLIBCXX_3.4>
    593a:	66 0f 1f 44 00 00    	nopw   0x0(%rax,%rax,1)

0000000000005940 <_ZNSaIcED1Ev@plt>:
    5940:	f3 0f 1e fa          	endbr64
    5944:	ff 25 46 05 03 00    	jmp    *0x30546(%rip)        # 35e90 <_ZNSaIcED1Ev@GLIBCXX_3.4>
    594a:	66 0f 1f 44 00 00    	nopw   0x0(%rax,%rax,1)

0000000000005950 <__stack_chk_fail@plt>:
    5950:	f3 0f 1e fa          	endbr64
    5954:	ff 25 3e 05 03 00    	jmp    *0x3053e(%rip)        # 35e98 <__stack_chk_fail@GLIBC_2.4>
    595a:	66 0f 1f 44 00 00    	nopw   0x0(%rax,%rax,1)

0000000000005960 <glClearDepth@plt>:
    5960:	f3 0f 1e fa          	endbr64
    5964:	ff 25 36 05 03 00    	jmp    *0x30536(%rip)        # 35ea0 <glClearDepth@Base>
    596a:	66 0f 1f 44 00 00    	nopw   0x0(%rax,%rax,1)

0000000000005970 <glfwInit@plt>:
    5970:	f3 0f 1e fa          	endbr64
    5974:	ff 25 2e 05 03 00    	jmp    *0x3052e(%rip)        # 35ea8 <glfwInit@Base>
    597a:	66 0f 1f 44 00 00    	nopw   0x0(%rax,%rax,1)

0000000000005980 <glfwSetWindowShouldClose@plt>:
    5980:	f3 0f 1e fa          	endbr64
    5984:	ff 25 26 05 03 00    	jmp    *0x30526(%rip)        # 35eb0 <glfwSetWindowShouldClose@Base>
    598a:	66 0f 1f 44 00 00    	nopw   0x0(%rax,%rax,1)

0000000000005990 <exit@plt>:
    5990:	f3 0f 1e fa          	endbr64
    5994:	ff 25 1e 05 03 00    	jmp    *0x3051e(%rip)        # 35eb8 <exit@GLIBC_2.2.5>
    599a:	66 0f 1f 44 00 00    	nopw   0x0(%rax,%rax,1)

00000000000059a0 <_ZStrsIcSt11char_traitsIcESaIcEERSt13basic_istreamIT_T0_ES7_RNSt7__cxx1112basic_stringIS4_S5_T1_EE@plt>:
    59a0:	f3 0f 1e fa          	endbr64
    59a4:	ff 25 16 05 03 00    	jmp    *0x30516(%rip)        # 35ec0 <_ZStrsIcSt11char_traitsIcESaIcEERSt13basic_istreamIT_T0_ES7_RNSt7__cxx1112basic_stringIS4_S5_T1_EE@GLIBCXX_3.4.21>
    59aa:	66 0f 1f 44 00 00    	nopw   0x0(%rax,%rax,1)

00000000000059b0 <_ZdaPv@plt>:
    59b0:	f3 0f 1e fa          	endbr64
    59b4:	ff 25 0e 05 03 00    	jmp    *0x3050e(%rip)        # 35ec8 <_ZdaPv@GLIBCXX_3.4>
    59ba:	66 0f 1f 44 00 00    	nopw   0x0(%rax,%rax,1)

00000000000059c0 <glCullFace@plt>:
    59c0:	f3 0f 1e fa          	endbr64
    59c4:	ff 25 06 05 03 00    	jmp    *0x30506(%rip)        # 35ed0 <glCullFace@Base>
    59ca:	66 0f 1f 44 00 00    	nopw   0x0(%rax,%rax,1)

00000000000059d0 <_ZNSolsEj@plt>:
    59d0:	f3 0f 1e fa          	endbr64
    59d4:	ff 25 fe 04 03 00    	jmp    *0x304fe(%rip)        # 35ed8 <_ZNSolsEj@GLIBCXX_3.4>
    59da:	66 0f 1f 44 00 00    	nopw   0x0(%rax,%rax,1)

00000000000059e0 <glfwSwapBuffers@plt>:
    59e0:	f3 0f 1e fa          	endbr64
    59e4:	ff 25 f6 04 03 00    	jmp    *0x304f6(%rip)        # 35ee0 <glfwSwapBuffers@Base>
    59ea:	66 0f 1f 44 00 00    	nopw   0x0(%rax,%rax,1)

00000000000059f0 <strcmp@plt>:
    59f0:	f3 0f 1e fa          	endbr64
    59f4:	ff 25 ee 04 03 00    	jmp    *0x304ee(%rip)        # 35ee8 <strcmp@GLIBC_2.2.5>
    59fa:	66 0f 1f 44 00 00    	nopw   0x0(%rax,%rax,1)

0000000000005a00 <_ZNSt14basic_ofstreamIcSt11char_traitsIcEE5closeEv@plt>:
    5a00:	f3 0f 1e fa          	endbr64
    5a04:	ff 25 e6 04 03 00    	jmp    *0x304e6(%rip)        # 35ef0 <_ZNSt14basic_ofstreamIcSt11char_traitsIcEE5closeEv@GLIBCXX_3.4>
    5a0a:	66 0f 1f 44 00 00    	nopw   0x0(%rax,%rax,1)

0000000000005a10 <_ZNSaIcEC2ERKS_@plt>:
    5a10:	f3 0f 1e fa          	endbr64
    5a14:	ff 25 de 04 03 00    	jmp    *0x304de(%rip)        # 35ef8 <_ZNSaIcEC2ERKS_@GLIBCXX_3.4>
    5a1a:	66 0f 1f 44 00 00    	nopw   0x0(%rax,%rax,1)

0000000000005a20 <glFlush@plt>:
    5a20:	f3 0f 1e fa          	endbr64
    5a24:	ff 25 d6 04 03 00    	jmp    *0x304d6(%rip)        # 35f00 <glFlush@Base>
    5a2a:	66 0f 1f 44 00 00    	nopw   0x0(%rax,%rax,1)

0000000000005a30 <__cxa_rethrow@plt>:
    5a30:	f3 0f 1e fa          	endbr64
    5a34:	ff 25 ce 04 03 00    	jmp    *0x304ce(%rip)        # 35f08 <__cxa_rethrow@CXXABI_1.3>
    5a3a:	66 0f 1f 44 00 00    	nopw   0x0(%rax,%rax,1)

0000000000005a40 <glfwSetFramebufferSizeCallback@plt>:
    5a40:	f3 0f 1e fa          	endbr64
    5a44:	ff 25 c6 04 03 00    	jmp    *0x304c6(%rip)        # 35f10 <glfwSetFramebufferSizeCallback@Base>
    5a4a:	66 0f 1f 44 00 00    	nopw   0x0(%rax,%rax,1)

0000000000005a50 <_ZNSt14basic_ofstreamIcSt11char_traitsIcEED1Ev@plt>:
    5a50:	f3 0f 1e fa          	endbr64
    5a54:	ff 25 be 04 03 00    	jmp    *0x304be(%rip)        # 35f18 <_ZNSt14basic_ofstreamIcSt11char_traitsIcEED1Ev@GLIBCXX_3.4>
    5a5a:	66 0f 1f 44 00 00    	nopw   0x0(%rax,%rax,1)

0000000000005a60 <glClearColor@plt>:
    5a60:	f3 0f 1e fa          	endbr64
    5a64:	ff 25 b6 04 03 00    	jmp    *0x304b6(%rip)        # 35f20 <glClearColor@Base>
    5a6a:	66 0f 1f 44 00 00    	nopw   0x0(%rax,%rax,1)

0000000000005a70 <_ZNSt8ios_base4InitC1Ev@plt>:
    5a70:	f3 0f 1e fa          	endbr64
    5a74:	ff 25 ae 04 03 00    	jmp    *0x304ae(%rip)        # 35f28 <_ZNSt8ios_base4InitC1Ev@GLIBCXX_3.4>
    5a7a:	66 0f 1f 44 00 00    	nopw   0x0(%rax,%rax,1)

0000000000005a80 <glfwSetInputMode@plt>:
    5a80:	f3 0f 1e fa          	endbr64
    5a84:	ff 25 a6 04 03 00    	jmp    *0x304a6(%rip)        # 35f30 <glfwSetInputMode@Base>
    5a8a:	66 0f 1f 44 00 00    	nopw   0x0(%rax,%rax,1)

0000000000005a90 <glfwCreateWindow@plt>:
    5a90:	f3 0f 1e fa          	endbr64
    5a94:	ff 25 9e 04 03 00    	jmp    *0x3049e(%rip)        # 35f38 <glfwCreateWindow@Base>
    5a9a:	66 0f 1f 44 00 00    	nopw   0x0(%rax,%rax,1)

0000000000005aa0 <_ZNKSt14basic_ifstreamIcSt11char_traitsIcEE5rdbufEv@plt>:
    5aa0:	f3 0f 1e fa          	endbr64
    5aa4:	ff 25 96 04 03 00    	jmp    *0x30496(%rip)        # 35f40 <_ZNKSt14basic_ifstreamIcSt11char_traitsIcEE5rdbufEv@GLIBCXX_3.4>
    5aaa:	66 0f 1f 44 00 00    	nopw   0x0(%rax,%rax,1)

0000000000005ab0 <_ZNSt14basic_ifstreamIcSt11char_traitsIcEE7is_openEv@plt>:
    5ab0:	f3 0f 1e fa          	endbr64
    5ab4:	ff 25 8e 04 03 00    	jmp    *0x3048e(%rip)        # 35f48 <_ZNSt14basic_ifstreamIcSt11char_traitsIcEE7is_openEv@GLIBCXX_3.4>
    5aba:	66 0f 1f 44 00 00    	nopw   0x0(%rax,%rax,1)

0000000000005ac0 <_ZNSt14basic_ifstreamIcSt11char_traitsIcEEC1ERKNSt7__cxx1112basic_stringIcS1_SaIcEEESt13_Ios_Openmode@plt>:
    5ac0:	f3 0f 1e fa          	endbr64
    5ac4:	ff 25 86 04 03 00    	jmp    *0x30486(%rip)        # 35f50 <_ZNSt14basic_ifstreamIcSt11char_traitsIcEEC1ERKNSt7__cxx1112basic_stringIcS1_SaIcEEESt13_Ios_Openmode@GLIBCXX_3.4.21>
    5aca:	66 0f 1f 44 00 00    	nopw   0x0(%rax,%rax,1)

0000000000005ad0 <_ZNSt13runtime_errorC1ERKNSt7__cxx1112basic_stringIcSt11char_traitsIcESaIcEEE@plt>:
    5ad0:	f3 0f 1e fa          	endbr64
    5ad4:	ff 25 7e 04 03 00    	jmp    *0x3047e(%rip)        # 35f58 <_ZNSt13runtime_errorC1ERKNSt7__cxx1112basic_stringIcSt11char_traitsIcESaIcEEE@GLIBCXX_3.4.21>
    5ada:	66 0f 1f 44 00 00    	nopw   0x0(%rax,%rax,1)

0000000000005ae0 <memmove@plt>:
    5ae0:	f3 0f 1e fa          	endbr64
    5ae4:	ff 25 76 04 03 00    	jmp    *0x30476(%rip)        # 35f60 <memmove@GLIBC_2.2.5>
    5aea:	66 0f 1f 44 00 00    	nopw   0x0(%rax,%rax,1)

0000000000005af0 <__cxa_end_catch@plt>:
    5af0:	f3 0f 1e fa          	endbr64
    5af4:	ff 25 6e 04 03 00    	jmp    *0x3046e(%rip)        # 35f68 <__cxa_end_catch@CXXABI_1.3>
    5afa:	66 0f 1f 44 00 00    	nopw   0x0(%rax,%rax,1)

0000000000005b00 <__cxa_throw@plt>:
    5b00:	f3 0f 1e fa          	endbr64
    5b04:	ff 25 66 04 03 00    	jmp    *0x30466(%rip)        # 35f70 <__cxa_throw@CXXABI_1.3>
    5b0a:	66 0f 1f 44 00 00    	nopw   0x0(%rax,%rax,1)

0000000000005b10 <_ZNSolsEi@plt>:
    5b10:	f3 0f 1e fa          	endbr64
    5b14:	ff 25 5e 04 03 00    	jmp    *0x3045e(%rip)        # 35f78 <_ZNSolsEi@GLIBCXX_3.4>
    5b1a:	66 0f 1f 44 00 00    	nopw   0x0(%rax,%rax,1)

0000000000005b20 <_Unwind_Resume@plt>:
    5b20:	f3 0f 1e fa          	endbr64
    5b24:	ff 25 56 04 03 00    	jmp    *0x30456(%rip)        # 35f80 <_Unwind_Resume@GCC_3.0>
    5b2a:	66 0f 1f 44 00 00    	nopw   0x0(%rax,%rax,1)

0000000000005b30 <_ZNSaIcEC1Ev@plt>:
    5b30:	f3 0f 1e fa          	endbr64
    5b34:	ff 25 4e 04 03 00    	jmp    *0x3044e(%rip)        # 35f88 <_ZNSaIcEC1Ev@GLIBCXX_3.4>
    5b3a:	66 0f 1f 44 00 00    	nopw   0x0(%rax,%rax,1)

0000000000005b40 <_ZNKRSt7__cxx1118basic_stringstreamIcSt11char_traitsIcESaIcEE3strEv@plt>:
    5b40:	f3 0f 1e fa          	endbr64
    5b44:	ff 25 46 04 03 00    	jmp    *0x30446(%rip)        # 35f90 <_ZNKRSt7__cxx1118basic_stringstreamIcSt11char_traitsIcESaIcEE3strEv@GLIBCXX_3.4.29>
    5b4a:	66 0f 1f 44 00 00    	nopw   0x0(%rax,%rax,1)

0000000000005b50 <sqrtf@plt>:
    5b50:	f3 0f 1e fa          	endbr64
    5b54:	ff 25 3e 04 03 00    	jmp    *0x3043e(%rip)        # 35f98 <sqrtf@GLIBC_2.2.5>
    5b5a:	66 0f 1f 44 00 00    	nopw   0x0(%rax,%rax,1)

0000000000005b60 <_ZNSt14basic_ifstreamIcSt11char_traitsIcEEC1EPKcSt13_Ios_Openmode@plt>:
    5b60:	f3 0f 1e fa          	endbr64
    5b64:	ff 25 36 04 03 00    	jmp    *0x30436(%rip)        # 35fa0 <_ZNSt14basic_ifstreamIcSt11char_traitsIcEEC1EPKcSt13_Ios_Openmode@GLIBCXX_3.4>
    5b6a:	66 0f 1f 44 00 00    	nopw   0x0(%rax,%rax,1)

0000000000005b70 <glfwWindowShouldClose@plt>:
    5b70:	f3 0f 1e fa          	endbr64
    5b74:	ff 25 2e 04 03 00    	jmp    *0x3042e(%rip)        # 35fa8 <glfwWindowShouldClose@Base>
    5b7a:	66 0f 1f 44 00 00    	nopw   0x0(%rax,%rax,1)

0000000000005b80 <cos@plt>:
    5b80:	f3 0f 1e fa          	endbr64
    5b84:	ff 25 26 04 03 00    	jmp    *0x30426(%rip)        # 35fb0 <cos@GLIBC_2.2.5>
    5b8a:	66 0f 1f 44 00 00    	nopw   0x0(%rax,%rax,1)

0000000000005b90 <_ZNSt14basic_ofstreamIcSt11char_traitsIcEEC1ERKNSt7__cxx1112basic_stringIcS1_SaIcEEESt13_Ios_Openmode@plt>:
    5b90:	f3 0f 1e fa          	endbr64
    5b94:	ff 25 1e 04 03 00    	jmp    *0x3041e(%rip)        # 35fb8 <_ZNSt14basic_ofstreamIcSt11char_traitsIcEEC1ERKNSt7__cxx1112basic_stringIcS1_SaIcEEESt13_Ios_Openmode@GLIBCXX_3.4.21>
    5b9a:	66 0f 1f 44 00 00    	nopw   0x0(%rax,%rax,1)

Disassembly of section .text:

0000000000005ba0 <_start>:
    5ba0:	f3 0f 1e fa          	endbr64
    5ba4:	31 ed                	xor    %ebp,%ebp
    5ba6:	49 89 d1             	mov    %rdx,%r9
    5ba9:	5e                   	pop    %rsi
    5baa:	48 89 e2             	mov    %rsp,%rdx
    5bad:	48 83 e4 f0          	and    $0xfffffffffffffff0,%rsp
    5bb1:	50                   	push   %rax
    5bb2:	54                   	push   %rsp
    5bb3:	45 31 c0             	xor    %r8d,%r8d
    5bb6:	31 c9                	xor    %ecx,%ecx
    5bb8:	48 8d 3d cc ef 01 00 	lea    0x1efcc(%rip),%rdi        # 24b8b <main>
    5bbf:	ff 15 0b 04 03 00    	call   *0x3040b(%rip)        # 35fd0 <__libc_start_main@GLIBC_2.34>
    5bc5:	f4                   	hlt
    5bc6:	66 2e 0f 1f 84 00 00 	cs nopw 0x0(%rax,%rax,1)
    5bcd:	00 00 00 

0000000000005bd0 <deregister_tm_clones>:
    5bd0:	48 8d 3d 51 04 03 00 	lea    0x30451(%rip),%rdi        # 36028 <__TMC_END__>
    5bd7:	48 8d 05 4a 04 03 00 	lea    0x3044a(%rip),%rax        # 36028 <__TMC_END__>
    5bde:	48 39 f8             	cmp    %rdi,%rax
    5be1:	74 15                	je     5bf8 <deregister_tm_clones+0x28>
    5be3:	48 8b 05 f6 03 03 00 	mov    0x303f6(%rip),%rax        # 35fe0 <_ITM_deregisterTMCloneTable@Base>
    5bea:	48 85 c0             	test   %rax,%rax
    5bed:	74 09                	je     5bf8 <deregister_tm_clones+0x28>
    5bef:	ff e0                	jmp    *%rax
    5bf1:	0f 1f 80 00 00 00 00 	nopl   0x0(%rax)
    5bf8:	c3                   	ret
    5bf9:	0f 1f 80 00 00 00 00 	nopl   0x0(%rax)

0000000000005c00 <register_tm_clones>:
    5c00:	48 8d 3d 21 04 03 00 	lea    0x30421(%rip),%rdi        # 36028 <__TMC_END__>
    5c07:	48 8d 35 1a 04 03 00 	lea    0x3041a(%rip),%rsi        # 36028 <__TMC_END__>
    5c0e:	48 29 fe             	sub    %rdi,%rsi
    5c11:	48 89 f0             	mov    %rsi,%rax
    5c14:	48 c1 ee 3f          	shr    $0x3f,%rsi
    5c18:	48 c1 f8 03          	sar    $0x3,%rax
    5c1c:	48 01 c6             	add    %rax,%rsi
    5c1f:	48 d1 fe             	sar    $1,%rsi
    5c22:	74 14                	je     5c38 <register_tm_clones+0x38>
    5c24:	48 8b 05 c5 03 03 00 	mov    0x303c5(%rip),%rax        # 35ff0 <_ITM_registerTMCloneTable@Base>
    5c2b:	48 85 c0             	test   %rax,%rax
    5c2e:	74 08                	je     5c38 <register_tm_clones+0x38>
    5c30:	ff e0                	jmp    *%rax
    5c32:	66 0f 1f 44 00 00    	nopw   0x0(%rax,%rax,1)
    5c38:	c3                   	ret
    5c39:	0f 1f 80 00 00 00 00 	nopl   0x0(%rax)

0000000000005c40 <__do_global_dtors_aux>:
    5c40:	f3 0f 1e fa          	endbr64
    5c44:	80 3d 05 09 03 00 00 	cmpb   $0x0,0x30905(%rip)        # 36550 <completed.0>
    5c4b:	75 2b                	jne    5c78 <__do_global_dtors_aux+0x38>
    5c4d:	55                   	push   %rbp
    5c4e:	48 83 3d 6a 03 03 00 	cmpq   $0x0,0x3036a(%rip)        # 35fc0 <__cxa_finalize@GLIBC_2.2.5>
    5c55:	00 
    5c56:	48 89 e5             	mov    %rsp,%rbp
    5c59:	74 0c                	je     5c67 <__do_global_dtors_aux+0x27>
    5c5b:	48 8b 3d a6 03 03 00 	mov    0x303a6(%rip),%rdi        # 36008 <__dso_handle>
    5c62:	e8 79 f9 ff ff       	call   55e0 <__cxa_finalize@plt>
    5c67:	e8 64 ff ff ff       	call   5bd0 <deregister_tm_clones>
    5c6c:	c6 05 dd 08 03 00 01 	movb   $0x1,0x308dd(%rip)        # 36550 <completed.0>
    5c73:	5d                   	pop    %rbp
    5c74:	c3                   	ret
    5c75:	0f 1f 00             	nopl   (%rax)
    5c78:	c3                   	ret
    5c79:	0f 1f 80 00 00 00 00 	nopl   0x0(%rax)

0000000000005c80 <frame_dummy>:
    5c80:	f3 0f 1e fa          	endbr64
    5c84:	e9 77 ff ff ff       	jmp    5c00 <register_tm_clones>

0000000000005c89 <_Z15dfs_print_nodesRKSt10shared_ptrI6node_tERSoRSt6vectorIS5_IiSaIiEESaIS7_EERSt3mapIS1_iSt4lessIS1_ESaISt4pairIS2_iEEERi>:
#include "serialization_utils.hpp"

#include <map>

void dfs_print_nodes(const std::shared_ptr<node_t>& node, std::ostream& os, std::vector<std::vector<int>>& adj, std::map<std::shared_ptr<node_t>, int>& node_to_index, int& index) {
    5c89:	f3 0f 1e fa          	endbr64
    5c8d:	55                   	push   %rbp
    5c8e:	48 89 e5             	mov    %rsp,%rbp
    5c91:	53                   	push   %rbx
    5c92:	48 83 ec 78          	sub    $0x78,%rsp
    5c96:	48 89 7d a8          	mov    %rdi,-0x58(%rbp)
    5c9a:	48 89 75 a0          	mov    %rsi,-0x60(%rbp)
    5c9e:	48 89 55 98          	mov    %rdx,-0x68(%rbp)
    5ca2:	48 89 4d 90          	mov    %rcx,-0x70(%rbp)
    5ca6:	4c 89 45 88          	mov    %r8,-0x78(%rbp)
    5caa:	64 48 8b 04 25 28 00 	mov    %fs:0x28,%rax
    5cb1:	00 00 
    5cb3:	48 89 45 e8          	mov    %rax,-0x18(%rbp)
    5cb7:	31 c0                	xor    %eax,%eax
    if (node_to_index.find(node) == node_to_index.end()) {
    5cb9:	48 8b 45 90          	mov    -0x70(%rbp),%rax
    5cbd:	48 89 c7             	mov    %rax,%rdi
    5cc0:	e8 53 14 00 00       	call   7118 <_ZNSt3mapISt10shared_ptrI6node_tEiSt4lessIS2_ESaISt4pairIKS2_iEEE3endEv>
    5cc5:	48 89 45 d0          	mov    %rax,-0x30(%rbp)
    5cc9:	48 8b 55 a8          	mov    -0x58(%rbp),%rdx
    5ccd:	48 8b 45 90          	mov    -0x70(%rbp),%rax
    5cd1:	48 89 d6             	mov    %rdx,%rsi
    5cd4:	48 89 c7             	mov    %rax,%rdi
    5cd7:	e8 12 14 00 00       	call   70ee <_ZNSt3mapISt10shared_ptrI6node_tEiSt4lessIS2_ESaISt4pairIKS2_iEEE4findERS6_>
    5cdc:	48 89 45 c8          	mov    %rax,-0x38(%rbp)
    5ce0:	48 8d 55 d0          	lea    -0x30(%rbp),%rdx
    5ce4:	48 8d 45 c8          	lea    -0x38(%rbp),%rax
    5ce8:	48 89 d6             	mov    %rdx,%rsi
    5ceb:	48 89 c7             	mov    %rax,%rdi
    5cee:	e8 43 14 00 00       	call   7136 <_ZSteqRKSt17_Rb_tree_iteratorISt4pairIKSt10shared_ptrI6node_tEiEES8_>
    5cf3:	84 c0                	test   %al,%al
    5cf5:	74 57                	je     5d4e <_Z15dfs_print_nodesRKSt10shared_ptrI6node_tERSoRSt6vectorIS5_IiSaIiEESaIS7_EERSt3mapIS1_iSt4lessIS1_ESaISt4pairIS2_iEEERi+0xc5>
        node_to_index[node] = index++;
    5cf7:	48 8b 45 88          	mov    -0x78(%rbp),%rax
    5cfb:	8b 18                	mov    (%rax),%ebx
    5cfd:	8d 53 01             	lea    0x1(%rbx),%edx
    5d00:	48 8b 45 88          	mov    -0x78(%rbp),%rax
    5d04:	89 10                	mov    %edx,(%rax)
    5d06:	48 8b 55 a8          	mov    -0x58(%rbp),%rdx
    5d0a:	48 8b 45 90          	mov    -0x70(%rbp),%rax
    5d0e:	48 89 d6             	mov    %rdx,%rsi
    5d11:	48 89 c7             	mov    %rax,%rdi
    5d14:	e8 43 14 00 00       	call   715c <_ZNSt3mapISt10shared_ptrI6node_tEiSt4lessIS2_ESaISt4pairIKS2_iEEEixERS6_>
    5d19:	89 18                	mov    %ebx,(%rax)
        os << *(node) << "\n";
    5d1b:	48 8b 45 a8          	mov    -0x58(%rbp),%rax
    5d1f:	48 89 c7             	mov    %rax,%rdi
    5d22:	e8 55 15 00 00       	call   727c <_ZNKSt19__shared_ptr_accessI6node_tLN9__gnu_cxx12_Lock_policyE2ELb0ELb0EEdeEv>
    5d27:	48 89 c2             	mov    %rax,%rdx
    5d2a:	48 8b 45 a0          	mov    -0x60(%rbp),%rax
    5d2e:	48 89 d6             	mov    %rdx,%rsi
    5d31:	48 89 c7             	mov    %rax,%rdi
    5d34:	e8 9f 01 00 00       	call   5ed8 <_ZlsRSoRK6node_t>
    5d39:	48 89 c2             	mov    %rax,%rdx
    5d3c:	48 8d 05 d5 02 02 00 	lea    0x202d5(%rip),%rax        # 26018 <_ZZNSt19_Sp_make_shared_tag5_S_tiEvE5__tag+0x10>
    5d43:	48 89 c6             	mov    %rax,%rsi
    5d46:	48 89 d7             	mov    %rdx,%rdi
    5d49:	e8 82 fb ff ff       	call   58d0 <_ZStlsISt11char_traitsIcEERSt13basic_ostreamIcT_ES5_PKc@plt>
    }
    for (const auto& child : node->children) {
    5d4e:	48 8b 45 a8          	mov    -0x58(%rbp),%rax
    5d52:	48 89 c7             	mov    %rax,%rdi
    5d55:	e8 68 15 00 00       	call   72c2 <_ZNKSt19__shared_ptr_accessI6node_tLN9__gnu_cxx12_Lock_policyE2ELb0ELb0EEptEv>
    5d5a:	48 83 c0 08          	add    $0x8,%rax
    5d5e:	48 89 45 d8          	mov    %rax,-0x28(%rbp)
    5d62:	48 8b 45 d8          	mov    -0x28(%rbp),%rax
    5d66:	48 89 c7             	mov    %rax,%rdi
    5d69:	e8 72 15 00 00       	call   72e0 <_ZNSt6vectorISt10shared_ptrI6node_tESaIS2_EE5beginEv>
    5d6e:	48 89 45 b8          	mov    %rax,-0x48(%rbp)
    5d72:	48 8b 45 d8          	mov    -0x28(%rbp),%rax
    5d76:	48 89 c7             	mov    %rax,%rdi
    5d79:	e8 ae 15 00 00       	call   732c <_ZNSt6vectorISt10shared_ptrI6node_tESaIS2_EE3endEv>
    5d7e:	48 89 45 c0          	mov    %rax,-0x40(%rbp)
    5d82:	e9 18 01 00 00       	jmp    5e9f <_Z15dfs_print_nodesRKSt10shared_ptrI6node_tERSoRSt6vectorIS5_IiSaIiEESaIS7_EERSt3mapIS1_iSt4lessIS1_ESaISt4pairIS2_iEEERi+0x216>
    5d87:	48 8d 45 b8          	lea    -0x48(%rbp),%rax
    5d8b:	48 89 c7             	mov    %rax,%rdi
    5d8e:	e8 d7 0f 00 00       	call   6d6a <_ZNK9__gnu_cxx17__normal_iteratorIPSt10shared_ptrI6node_tESt6vectorIS3_SaIS3_EEEdeEv>
    5d93:	48 89 45 e0          	mov    %rax,-0x20(%rbp)
        if (node_to_index.find(child) == node_to_index.end()) {
    5d97:	48 8b 45 90          	mov    -0x70(%rbp),%rax
    5d9b:	48 89 c7             	mov    %rax,%rdi
    5d9e:	e8 75 13 00 00       	call   7118 <_ZNSt3mapISt10shared_ptrI6node_tEiSt4lessIS2_ESaISt4pairIKS2_iEEE3endEv>
    5da3:	48 89 45 d0          	mov    %rax,-0x30(%rbp)
    5da7:	48 8b 55 e0          	mov    -0x20(%rbp),%rdx
    5dab:	48 8b 45 90          	mov    -0x70(%rbp),%rax
    5daf:	48 89 d6             	mov    %rdx,%rsi
    5db2:	48 89 c7             	mov    %rax,%rdi
    5db5:	e8 34 13 00 00       	call   70ee <_ZNSt3mapISt10shared_ptrI6node_tEiSt4lessIS2_ESaISt4pairIKS2_iEEE4findERS6_>
    5dba:	48 89 45 c8          	mov    %rax,-0x38(%rbp)
    5dbe:	48 8d 55 d0          	lea    -0x30(%rbp),%rdx
    5dc2:	48 8d 45 c8          	lea    -0x38(%rbp),%rax
    5dc6:	48 89 d6             	mov    %rdx,%rsi
    5dc9:	48 89 c7             	mov    %rax,%rdi
    5dcc:	e8 65 13 00 00       	call   7136 <_ZSteqRKSt17_Rb_tree_iteratorISt4pairIKSt10shared_ptrI6node_tEiEES8_>
    5dd1:	84 c0                	test   %al,%al
    5dd3:	74 57                	je     5e2c <_Z15dfs_print_nodesRKSt10shared_ptrI6node_tERSoRSt6vectorIS5_IiSaIiEESaIS7_EERSt3mapIS1_iSt4lessIS1_ESaISt4pairIS2_iEEERi+0x1a3>
            node_to_index[child] = index++;
    5dd5:	48 8b 45 88          	mov    -0x78(%rbp),%rax
    5dd9:	8b 18                	mov    (%rax),%ebx
    5ddb:	8d 53 01             	lea    0x1(%rbx),%edx
    5dde:	48 8b 45 88          	mov    -0x78(%rbp),%rax
    5de2:	89 10                	mov    %edx,(%rax)
    5de4:	48 8b 55 e0          	mov    -0x20(%rbp),%rdx
    5de8:	48 8b 45 90          	mov    -0x70(%rbp),%rax
    5dec:	48 89 d6             	mov    %rdx,%rsi
    5def:	48 89 c7             	mov    %rax,%rdi
    5df2:	e8 65 13 00 00       	call   715c <_ZNSt3mapISt10shared_ptrI6node_tEiSt4lessIS2_ESaISt4pairIKS2_iEEEixERS6_>
    5df7:	89 18                	mov    %ebx,(%rax)
            os << *(child) << "\n";
    5df9:	48 8b 45 e0          	mov    -0x20(%rbp),%rax
    5dfd:	48 89 c7             	mov    %rax,%rdi
    5e00:	e8 77 14 00 00       	call   727c <_ZNKSt19__shared_ptr_accessI6node_tLN9__gnu_cxx12_Lock_policyE2ELb0ELb0EEdeEv>
    5e05:	48 89 c2             	mov    %rax,%rdx
    5e08:	48 8b 45 a0          	mov    -0x60(%rbp),%rax
    5e0c:	48 89 d6             	mov    %rdx,%rsi
    5e0f:	48 89 c7             	mov    %rax,%rdi
    5e12:	e8 c1 00 00 00       	call   5ed8 <_ZlsRSoRK6node_t>
    5e17:	48 89 c2             	mov    %rax,%rdx
    5e1a:	48 8d 05 f7 01 02 00 	lea    0x201f7(%rip),%rax        # 26018 <_ZZNSt19_Sp_make_shared_tag5_S_tiEvE5__tag+0x10>
    5e21:	48 89 c6             	mov    %rax,%rsi
    5e24:	48 89 d7             	mov    %rdx,%rdi
    5e27:	e8 a4 fa ff ff       	call   58d0 <_ZStlsISt11char_traitsIcEERSt13basic_ostreamIcT_ES5_PKc@plt>
        }
        adj[node_to_index[node]].push_back(node_to_index[child]);
    5e2c:	48 8b 55 a8          	mov    -0x58(%rbp),%rdx
    5e30:	48 8b 45 90          	mov    -0x70(%rbp),%rax
    5e34:	48 89 d6             	mov    %rdx,%rsi
    5e37:	48 89 c7             	mov    %rax,%rdi
    5e3a:	e8 1d 13 00 00       	call   715c <_ZNSt3mapISt10shared_ptrI6node_tEiSt4lessIS2_ESaISt4pairIKS2_iEEEixERS6_>
    5e3f:	8b 00                	mov    (%rax),%eax
    5e41:	48 63 d0             	movslq %eax,%rdx
    5e44:	48 8b 45 98          	mov    -0x68(%rbp),%rax
    5e48:	48 89 d6             	mov    %rdx,%rsi
    5e4b:	48 89 c7             	mov    %rax,%rdi
    5e4e:	e8 4d 15 00 00       	call   73a0 <_ZNSt6vectorIS_IiSaIiEESaIS1_EEixEm>
    5e53:	48 89 c3             	mov    %rax,%rbx
    5e56:	48 8b 55 e0          	mov    -0x20(%rbp),%rdx
    5e5a:	48 8b 45 90          	mov    -0x70(%rbp),%rax
    5e5e:	48 89 d6             	mov    %rdx,%rsi
    5e61:	48 89 c7             	mov    %rax,%rdi
    5e64:	e8 f3 12 00 00       	call   715c <_ZNSt3mapISt10shared_ptrI6node_tEiSt4lessIS2_ESaISt4pairIKS2_iEEEixERS6_>
    5e69:	48 89 c6             	mov    %rax,%rsi
    5e6c:	48 89 df             	mov    %rbx,%rdi
    5e6f:	e8 5a 15 00 00       	call   73ce <_ZNSt6vectorIiSaIiEE9push_backERKi>
        dfs_print_nodes(child, os, adj, node_to_index, index);
    5e74:	48 8b 7d 88          	mov    -0x78(%rbp),%rdi
    5e78:	48 8b 4d 90          	mov    -0x70(%rbp),%rcx
    5e7c:	48 8b 55 98          	mov    -0x68(%rbp),%rdx
    5e80:	48 8b 75 a0          	mov    -0x60(%rbp),%rsi
    5e84:	48 8b 45 e0          	mov    -0x20(%rbp),%rax
    5e88:	49 89 f8             	mov    %rdi,%r8
    5e8b:	48 89 c7             	mov    %rax,%rdi
    5e8e:	e8 f6 fd ff ff       	call   5c89 <_Z15dfs_print_nodesRKSt10shared_ptrI6node_tERSoRSt6vectorIS5_IiSaIiEESaIS7_EERSt3mapIS1_iSt4lessIS1_ESaISt4pairIS2_iEEERi>
    for (const auto& child : node->children) {
    5e93:	48 8d 45 b8          	lea    -0x48(%rbp),%rax
    5e97:	48 89 c7             	mov    %rax,%rdi
    5e9a:	e8 dd 14 00 00       	call   737c <_ZN9__gnu_cxx17__normal_iteratorIPSt10shared_ptrI6node_tESt6vectorIS3_SaIS3_EEEppEv>
    5e9f:	48 8d 55 c0          	lea    -0x40(%rbp),%rdx
    5ea3:	48 8d 45 b8          	lea    -0x48(%rbp),%rax
    5ea7:	48 89 d6             	mov    %rdx,%rsi
    5eaa:	48 89 c7             	mov    %rax,%rdi
    5ead:	e8 67 0e 00 00       	call   6d19 <_ZN9__gnu_cxxeqIPSt10shared_ptrI6node_tESt6vectorIS3_SaIS3_EEEEbRKNS_17__normal_iteratorIT_T0_EESD_>
    5eb2:	83 f0 01             	xor    $0x1,%eax
    5eb5:	84 c0                	test   %al,%al
    5eb7:	0f 85 ca fe ff ff    	jne    5d87 <_Z15dfs_print_nodesRKSt10shared_ptrI6node_tERSoRSt6vectorIS5_IiSaIiEESaIS7_EERSt3mapIS1_iSt4lessIS1_ESaISt4pairIS2_iEEERi+0xfe>
    }
}
    5ebd:	90                   	nop
    5ebe:	48 8b 45 e8          	mov    -0x18(%rbp),%rax
    5ec2:	64 48 2b 04 25 28 00 	sub    %fs:0x28,%rax
    5ec9:	00 00 
    5ecb:	74 05                	je     5ed2 <_Z15dfs_print_nodesRKSt10shared_ptrI6node_tERSoRSt6vectorIS5_IiSaIiEESaIS7_EERSt3mapIS1_iSt4lessIS1_ESaISt4pairIS2_iEEERi+0x249>
    5ecd:	e8 7e fa ff ff       	call   5950 <__stack_chk_fail@plt>
    5ed2:	48 8b 5d f8          	mov    -0x8(%rbp),%rbx
    5ed6:	c9                   	leave
    5ed7:	c3                   	ret

0000000000005ed8 <_ZlsRSoRK6node_t>:

std::ostream& operator<<(std::ostream& os, const node_t& node) {
    5ed8:	f3 0f 1e fa          	endbr64
    5edc:	55                   	push   %rbp
    5edd:	48 89 e5             	mov    %rsp,%rbp
    5ee0:	53                   	push   %rbx
    5ee1:	48 83 ec 18          	sub    $0x18,%rsp
    5ee5:	48 89 7d e8          	mov    %rdi,-0x18(%rbp)
    5ee9:	48 89 75 e0          	mov    %rsi,-0x20(%rbp)
    os << node.shape->shapetype << " " << node.shape->level << "\n";
    5eed:	48 8b 45 e0          	mov    -0x20(%rbp),%rax
    5ef1:	48 83 c0 30          	add    $0x30,%rax
    5ef5:	48 89 c7             	mov    %rax,%rdi
    5ef8:	e8 51 15 00 00       	call   744e <_ZNKSt19__shared_ptr_accessI7shape_tLN9__gnu_cxx12_Lock_policyE2ELb0ELb0EEptEv>
    5efd:	8b 40 28             	mov    0x28(%rax),%eax
    5f00:	89 c2                	mov    %eax,%edx
    5f02:	48 8b 45 e8          	mov    -0x18(%rbp),%rax
    5f06:	89 d6                	mov    %edx,%esi
    5f08:	48 89 c7             	mov    %rax,%rdi
    5f0b:	e8 00 fc ff ff       	call   5b10 <_ZNSolsEi@plt>
    5f10:	48 89 c2             	mov    %rax,%rdx
    5f13:	48 8d 05 00 01 02 00 	lea    0x20100(%rip),%rax        # 2601a <_ZZNSt19_Sp_make_shared_tag5_S_tiEvE5__tag+0x12>
    5f1a:	48 89 c6             	mov    %rax,%rsi
    5f1d:	48 89 d7             	mov    %rdx,%rdi
    5f20:	e8 ab f9 ff ff       	call   58d0 <_ZStlsISt11char_traitsIcEERSt13basic_ostreamIcT_ES5_PKc@plt>
    5f25:	48 89 c3             	mov    %rax,%rbx
    5f28:	48 8b 45 e0          	mov    -0x20(%rbp),%rax
    5f2c:	48 83 c0 30          	add    $0x30,%rax
    5f30:	48 89 c7             	mov    %rax,%rdi
    5f33:	e8 16 15 00 00       	call   744e <_ZNKSt19__shared_ptr_accessI7shape_tLN9__gnu_cxx12_Lock_policyE2ELb0ELb0EEptEv>
    5f38:	8b 40 2c             	mov    0x2c(%rax),%eax
    5f3b:	89 c6                	mov    %eax,%esi
    5f3d:	48 89 df             	mov    %rbx,%rdi
    5f40:	e8 8b fa ff ff       	call   59d0 <_ZNSolsEj@plt>
    5f45:	48 89 c2             	mov    %rax,%rdx
    5f48:	48 8d 05 c9 00 02 00 	lea    0x200c9(%rip),%rax        # 26018 <_ZZNSt19_Sp_make_shared_tag5_S_tiEvE5__tag+0x10>
    5f4f:	48 89 c6             	mov    %rax,%rsi
    5f52:	48 89 d7             	mov    %rdx,%rdi
    5f55:	e8 76 f9 ff ff       	call   58d0 <_ZStlsISt11char_traitsIcEERSt13basic_ostreamIcT_ES5_PKc@plt>
    os << node.xrot << " " << node.yrot << " " << node.zrot << "\n";
    5f5a:	48 8b 45 e0          	mov    -0x20(%rbp),%rax
    5f5e:	8b 50 40             	mov    0x40(%rax),%edx
    5f61:	48 8b 45 e8          	mov    -0x18(%rbp),%rax
    5f65:	66 0f 6e c2          	movd   %edx,%xmm0
    5f69:	48 89 c7             	mov    %rax,%rdi
    5f6c:	e8 8f f8 ff ff       	call   5800 <_ZNSolsEf@plt>
    5f71:	48 89 c2             	mov    %rax,%rdx
    5f74:	48 8d 05 9f 00 02 00 	lea    0x2009f(%rip),%rax        # 2601a <_ZZNSt19_Sp_make_shared_tag5_S_tiEvE5__tag+0x12>
    5f7b:	48 89 c6             	mov    %rax,%rsi
    5f7e:	48 89 d7             	mov    %rdx,%rdi
    5f81:	e8 4a f9 ff ff       	call   58d0 <_ZStlsISt11char_traitsIcEERSt13basic_ostreamIcT_ES5_PKc@plt>
    5f86:	48 89 c2             	mov    %rax,%rdx
    5f89:	48 8b 45 e0          	mov    -0x20(%rbp),%rax
    5f8d:	8b 40 44             	mov    0x44(%rax),%eax
    5f90:	66 0f 6e c0          	movd   %eax,%xmm0
    5f94:	48 89 d7             	mov    %rdx,%rdi
    5f97:	e8 64 f8 ff ff       	call   5800 <_ZNSolsEf@plt>
    5f9c:	48 89 c2             	mov    %rax,%rdx
    5f9f:	48 8d 05 74 00 02 00 	lea    0x20074(%rip),%rax        # 2601a <_ZZNSt19_Sp_make_shared_tag5_S_tiEvE5__tag+0x12>
    5fa6:	48 89 c6             	mov    %rax,%rsi
    5fa9:	48 89 d7             	mov    %rdx,%rdi
    5fac:	e8 1f f9 ff ff       	call   58d0 <_ZStlsISt11char_traitsIcEERSt13basic_ostreamIcT_ES5_PKc@plt>
    5fb1:	48 89 c2             	mov    %rax,%rdx
    5fb4:	48 8b 45 e0          	mov    -0x20(%rbp),%rax
    5fb8:	8b 40 48             	mov    0x48(%rax),%eax
    5fbb:	66 0f 6e c0          	movd   %eax,%xmm0
    5fbf:	48 89 d7             	mov    %rdx,%rdi
    5fc2:	e8 39 f8 ff ff       	call   5800 <_ZNSolsEf@plt>
    5fc7:	48 89 c2             	mov    %rax,%rdx
    5fca:	48 8d 05 47 00 02 00 	lea    0x20047(%rip),%rax        # 26018 <_ZZNSt19_Sp_make_shared_tag5_S_tiEvE5__tag+0x10>
    5fd1:	48 89 c6             	mov    %rax,%rsi
    5fd4:	48 89 d7             	mov    %rdx,%rdi
    5fd7:	e8 f4 f8 ff ff       	call   58d0 <_ZStlsISt11char_traitsIcEERSt13basic_ostreamIcT_ES5_PKc@plt>
    os << node.xpos << " " << node.ypos << " " << node.zpos << "\n";
    5fdc:	48 8b 45 e0          	mov    -0x20(%rbp),%rax
    5fe0:	8b 50 4c             	mov    0x4c(%rax),%edx
    5fe3:	48 8b 45 e8          	mov    -0x18(%rbp),%rax
    5fe7:	66 0f 6e c2          	movd   %edx,%xmm0
    5feb:	48 89 c7             	mov    %rax,%rdi
    5fee:	e8 0d f8 ff ff       	call   5800 <_ZNSolsEf@plt>
    5ff3:	48 89 c2             	mov    %rax,%rdx
    5ff6:	48 8d 05 1d 00 02 00 	lea    0x2001d(%rip),%rax        # 2601a <_ZZNSt19_Sp_make_shared_tag5_S_tiEvE5__tag+0x12>
    5ffd:	48 89 c6             	mov    %rax,%rsi
    6000:	48 89 d7             	mov    %rdx,%rdi
    6003:	e8 c8 f8 ff ff       	call   58d0 <_ZStlsISt11char_traitsIcEERSt13basic_ostreamIcT_ES5_PKc@plt>
    6008:	48 89 c2             	mov    %rax,%rdx
    600b:	48 8b 45 e0          	mov    -0x20(%rbp),%rax
    600f:	8b 40 50             	mov    0x50(%rax),%eax
    6012:	66 0f 6e c0          	movd   %eax,%xmm0
    6016:	48 89 d7             	mov    %rdx,%rdi
    6019:	e8 e2 f7 ff ff       	call   5800 <_ZNSolsEf@plt>
    601e:	48 89 c2             	mov    %rax,%rdx
    6021:	48 8d 05 f2 ff 01 00 	lea    0x1fff2(%rip),%rax        # 2601a <_ZZNSt19_Sp_make_shared_tag5_S_tiEvE5__tag+0x12>
    6028:	48 89 c6             	mov    %rax,%rsi
    602b:	48 89 d7             	mov    %rdx,%rdi
    602e:	e8 9d f8 ff ff       	call   58d0 <_ZStlsISt11char_traitsIcEERSt13basic_ostreamIcT_ES5_PKc@plt>
    6033:	48 89 c2             	mov    %rax,%rdx
    6036:	48 8b 45 e0          	mov    -0x20(%rbp),%rax
    603a:	8b 40 54             	mov    0x54(%rax),%eax
    603d:	66 0f 6e c0          	movd   %eax,%xmm0
    6041:	48 89 d7             	mov    %rdx,%rdi
    6044:	e8 b7 f7 ff ff       	call   5800 <_ZNSolsEf@plt>
    6049:	48 89 c2             	mov    %rax,%rdx
    604c:	48 8d 05 c5 ff 01 00 	lea    0x1ffc5(%rip),%rax        # 26018 <_ZZNSt19_Sp_make_shared_tag5_S_tiEvE5__tag+0x10>
    6053:	48 89 c6             	mov    %rax,%rsi
    6056:	48 89 d7             	mov    %rdx,%rdi
    6059:	e8 72 f8 ff ff       	call   58d0 <_ZStlsISt11char_traitsIcEERSt13basic_ostreamIcT_ES5_PKc@plt>
    os << node.xscale << " " << node.yscale << " " << node.zscale;
    605e:	48 8b 45 e0          	mov    -0x20(%rbp),%rax
    6062:	8b 50 58             	mov    0x58(%rax),%edx
    6065:	48 8b 45 e8          	mov    -0x18(%rbp),%rax
    6069:	66 0f 6e c2          	movd   %edx,%xmm0
    606d:	48 89 c7             	mov    %rax,%rdi
    6070:	e8 8b f7 ff ff       	call   5800 <_ZNSolsEf@plt>
    6075:	48 89 c2             	mov    %rax,%rdx
    6078:	48 8d 05 9b ff 01 00 	lea    0x1ff9b(%rip),%rax        # 2601a <_ZZNSt19_Sp_make_shared_tag5_S_tiEvE5__tag+0x12>
    607f:	48 89 c6             	mov    %rax,%rsi
    6082:	48 89 d7             	mov    %rdx,%rdi
    6085:	e8 46 f8 ff ff       	call   58d0 <_ZStlsISt11char_traitsIcEERSt13basic_ostreamIcT_ES5_PKc@plt>
    608a:	48 89 c2             	mov    %rax,%rdx
    608d:	48 8b 45 e0          	mov    -0x20(%rbp),%rax
    6091:	8b 40 5c             	mov    0x5c(%rax),%eax
    6094:	66 0f 6e c0          	movd   %eax,%xmm0
    6098:	48 89 d7             	mov    %rdx,%rdi
    609b:	e8 60 f7 ff ff       	call   5800 <_ZNSolsEf@plt>
    60a0:	48 89 c2             	mov    %rax,%rdx
    60a3:	48 8d 05 70 ff 01 00 	lea    0x1ff70(%rip),%rax        # 2601a <_ZZNSt19_Sp_make_shared_tag5_S_tiEvE5__tag+0x12>
    60aa:	48 89 c6             	mov    %rax,%rsi
    60ad:	48 89 d7             	mov    %rdx,%rdi
    60b0:	e8 1b f8 ff ff       	call   58d0 <_ZStlsISt11char_traitsIcEERSt13basic_ostreamIcT_ES5_PKc@plt>
    60b5:	48 89 c2             	mov    %rax,%rdx
    60b8:	48 8b 45 e0          	mov    -0x20(%rbp),%rax
    60bc:	8b 40 60             	mov    0x60(%rax),%eax
    60bf:	66 0f 6e c0          	movd   %eax,%xmm0
    60c3:	48 89 d7             	mov    %rdx,%rdi
    60c6:	e8 35 f7 ff ff       	call   5800 <_ZNSolsEf@plt>
    return os;
    60cb:	48 8b 45 e8          	mov    -0x18(%rbp),%rax
}
    60cf:	48 8b 5d f8          	mov    -0x8(%rbp),%rbx
    60d3:	c9                   	leave
    60d4:	c3                   	ret

00000000000060d5 <_ZlsRSoRK7model_t>:

std::ostream& operator<<(std::ostream& os, const model_t& model) {
    60d5:	f3 0f 1e fa          	endbr64
    60d9:	55                   	push   %rbp
    60da:	48 89 e5             	mov    %rsp,%rbp
    60dd:	53                   	push   %rbx
    60de:	48 81 ec c8 00 00 00 	sub    $0xc8,%rsp
    60e5:	48 89 bd 38 ff ff ff 	mov    %rdi,-0xc8(%rbp)
    60ec:	48 89 b5 30 ff ff ff 	mov    %rsi,-0xd0(%rbp)
    60f3:	64 48 8b 04 25 28 00 	mov    %fs:0x28,%rax
    60fa:	00 00 
    60fc:	48 89 45 e8          	mov    %rax,-0x18(%rbp)
    6100:	31 c0                	xor    %eax,%eax
    if (!model.root_node) {
    6102:	48 8b 85 30 ff ff ff 	mov    -0xd0(%rbp),%rax
    6109:	48 83 c0 08          	add    $0x8,%rax
    610d:	48 89 45 88          	mov    %rax,-0x78(%rbp)
      /// Return true if the stored pointer is not null.
#if __cplusplus >= 202002L
      [[__gnu__::__always_inline__]]
#endif
      explicit operator bool() const noexcept
      { return _M_ptr != nullptr; }
    6111:	48 8b 45 88          	mov    -0x78(%rbp),%rax
    6115:	48 8b 00             	mov    (%rax),%rax
    6118:	48 85 c0             	test   %rax,%rax
    611b:	0f 95 c0             	setne  %al
    611e:	83 f0 01             	xor    $0x1,%eax
    6121:	84 c0                	test   %al,%al
    6123:	74 25                	je     614a <_ZlsRSoRK7model_t+0x75>
        os << "0\n";
    6125:	48 8b 85 38 ff ff ff 	mov    -0xc8(%rbp),%rax
    612c:	48 8d 15 e9 fe 01 00 	lea    0x1fee9(%rip),%rdx        # 2601c <_ZZNSt19_Sp_make_shared_tag5_S_tiEvE5__tag+0x14>
    6133:	48 89 d6             	mov    %rdx,%rsi
    6136:	48 89 c7             	mov    %rax,%rdi
    6139:	e8 92 f7 ff ff       	call   58d0 <_ZStlsISt11char_traitsIcEERSt13basic_ostreamIcT_ES5_PKc@plt>
        return os;
    613e:	48 8b 9d 38 ff ff ff 	mov    -0xc8(%rbp),%rbx
    6145:	e9 37 02 00 00       	jmp    6381 <_ZlsRSoRK7model_t+0x2ac>
    }
    int index = 0;
    614a:	c7 85 48 ff ff ff 00 	movl   $0x0,-0xb8(%rbp)
    6151:	00 00 00 
    std::map<std::shared_ptr<node_t>, int> node_to_index;
    6154:	48 8d 45 b0          	lea    -0x50(%rbp),%rax
    6158:	48 89 c7             	mov    %rax,%rdi
    615b:	e8 60 0c 00 00       	call   6dc0 <_ZNSt3mapISt10shared_ptrI6node_tEiSt4lessIS2_ESaISt4pairIKS2_iEEEC1Ev>
    os << model.node_count << "\n"; // Number of nodes
    6160:	48 8b 85 30 ff ff ff 	mov    -0xd0(%rbp),%rax
    6167:	8b 10                	mov    (%rax),%edx
    6169:	48 8b 85 38 ff ff ff 	mov    -0xc8(%rbp),%rax
    6170:	89 d6                	mov    %edx,%esi
    6172:	48 89 c7             	mov    %rax,%rdi
    6175:	e8 96 f9 ff ff       	call   5b10 <_ZNSolsEi@plt>
    617a:	48 89 c2             	mov    %rax,%rdx
    617d:	48 8d 05 94 fe 01 00 	lea    0x1fe94(%rip),%rax        # 26018 <_ZZNSt19_Sp_make_shared_tag5_S_tiEvE5__tag+0x10>
    6184:	48 89 c6             	mov    %rax,%rsi
    6187:	48 89 d7             	mov    %rdx,%rdi
    618a:	e8 41 f7 ff ff       	call   58d0 <_ZStlsISt11char_traitsIcEERSt13basic_ostreamIcT_ES5_PKc@plt>
    std::vector<std::vector<int>> adj(model.node_count);
    618f:	48 8d 85 68 ff ff ff 	lea    -0x98(%rbp),%rax
    6196:	48 89 c7             	mov    %rax,%rdi
    6199:	e8 58 13 00 00       	call   74f6 <_ZNSaISt6vectorIiSaIiEEEC1Ev>
    619e:	48 8b 85 30 ff ff ff 	mov    -0xd0(%rbp),%rax
    61a5:	8b 00                	mov    (%rax),%eax
    61a7:	48 63 c8             	movslq %eax,%rcx
    61aa:	48 8d 95 68 ff ff ff 	lea    -0x98(%rbp),%rdx
    61b1:	48 8d 45 90          	lea    -0x70(%rbp),%rax
    61b5:	48 89 ce             	mov    %rcx,%rsi
    61b8:	48 89 c7             	mov    %rax,%rdi
    61bb:	e8 66 13 00 00       	call   7526 <_ZNSt6vectorIS_IiSaIiEESaIS1_EEC1EmRKS2_>
    61c0:	48 8d 85 68 ff ff ff 	lea    -0x98(%rbp),%rax
    61c7:	48 89 c7             	mov    %rax,%rdi
    61ca:	e8 47 13 00 00       	call   7516 <_ZNSaISt6vectorIiSaIiEEED1Ev>
    dfs_print_nodes(model.root_node, os, adj, node_to_index, index);
    61cf:	48 8b 85 30 ff ff ff 	mov    -0xd0(%rbp),%rax
    61d6:	48 8d 78 08          	lea    0x8(%rax),%rdi
    61da:	48 8d b5 48 ff ff ff 	lea    -0xb8(%rbp),%rsi
    61e1:	48 8d 4d b0          	lea    -0x50(%rbp),%rcx
    61e5:	48 8d 55 90          	lea    -0x70(%rbp),%rdx
    61e9:	48 8b 85 38 ff ff ff 	mov    -0xc8(%rbp),%rax
    61f0:	49 89 f0             	mov    %rsi,%r8
    61f3:	48 89 c6             	mov    %rax,%rsi
    61f6:	e8 8e fa ff ff       	call   5c89 <_Z15dfs_print_nodesRKSt10shared_ptrI6node_tERSoRSt6vectorIS5_IiSaIiEESaIS7_EERSt3mapIS1_iSt4lessIS1_ESaISt4pairIS2_iEEERi>
    for (const auto& neighbors : adj) {
    61fb:	48 8d 45 90          	lea    -0x70(%rbp),%rax
    61ff:	48 89 85 70 ff ff ff 	mov    %rax,-0x90(%rbp)
    6206:	48 8b 85 70 ff ff ff 	mov    -0x90(%rbp),%rax
    620d:	48 89 c7             	mov    %rax,%rdi
    6210:	e8 d7 13 00 00       	call   75ec <_ZNSt6vectorIS_IiSaIiEESaIS1_EE5beginEv>
    6215:	48 89 85 50 ff ff ff 	mov    %rax,-0xb0(%rbp)
    621c:	48 8b 85 70 ff ff ff 	mov    -0x90(%rbp),%rax
    6223:	48 89 c7             	mov    %rax,%rdi
    6226:	e8 0d 14 00 00       	call   7638 <_ZNSt6vectorIS_IiSaIiEESaIS1_EE3endEv>
    622b:	48 89 85 58 ff ff ff 	mov    %rax,-0xa8(%rbp)
    6232:	e9 07 01 00 00       	jmp    633e <_ZlsRSoRK7model_t+0x269>
    6237:	48 8d 85 50 ff ff ff 	lea    -0xb0(%rbp),%rax
    623e:	48 89 c7             	mov    %rax,%rdi
    6241:	e8 0a 0c 00 00       	call   6e50 <_ZNK9__gnu_cxx17__normal_iteratorIPSt6vectorIiSaIiEES1_IS3_SaIS3_EEEdeEv>
    6246:	48 89 85 78 ff ff ff 	mov    %rax,-0x88(%rbp)
        os << neighbors.size();
    624d:	48 8b 85 78 ff ff ff 	mov    -0x88(%rbp),%rax
    6254:	48 89 c7             	mov    %rax,%rdi
    6257:	e8 50 14 00 00       	call   76ac <_ZNKSt6vectorIiSaIiEE4sizeEv>
    625c:	48 89 c2             	mov    %rax,%rdx
    625f:	48 8b 85 38 ff ff ff 	mov    -0xc8(%rbp),%rax
    6266:	48 89 d6             	mov    %rdx,%rsi
    6269:	48 89 c7             	mov    %rax,%rdi
    626c:	e8 ff f3 ff ff       	call   5670 <_ZNSolsEm@plt>
        for (int neighbor : neighbors) {
    6271:	48 8b 85 78 ff ff ff 	mov    -0x88(%rbp),%rax
    6278:	48 89 45 80          	mov    %rax,-0x80(%rbp)
    627c:	48 8b 45 80          	mov    -0x80(%rbp),%rax
    6280:	48 89 c7             	mov    %rax,%rdi
    6283:	e8 4c 14 00 00       	call   76d4 <_ZNKSt6vectorIiSaIiEE5beginEv>
    6288:	48 89 85 60 ff ff ff 	mov    %rax,-0xa0(%rbp)
    628f:	48 8b 45 80          	mov    -0x80(%rbp),%rax
    6293:	48 89 c7             	mov    %rax,%rdi
    6296:	e8 85 14 00 00       	call   7720 <_ZNKSt6vectorIiSaIiEE3endEv>
    629b:	48 89 85 68 ff ff ff 	mov    %rax,-0x98(%rbp)
    62a2:	eb 52                	jmp    62f6 <_ZlsRSoRK7model_t+0x221>
    62a4:	48 8d 85 60 ff ff ff 	lea    -0xa0(%rbp),%rax
    62ab:	48 89 c7             	mov    %rax,%rdi
    62ae:	e8 03 0c 00 00       	call   6eb6 <_ZNK9__gnu_cxx17__normal_iteratorIPKiSt6vectorIiSaIiEEEdeEv>
    62b3:	8b 00                	mov    (%rax),%eax
    62b5:	89 85 4c ff ff ff    	mov    %eax,-0xb4(%rbp)
            os << " " << neighbor;
    62bb:	48 8b 85 38 ff ff ff 	mov    -0xc8(%rbp),%rax
    62c2:	48 8d 15 51 fd 01 00 	lea    0x1fd51(%rip),%rdx        # 2601a <_ZZNSt19_Sp_make_shared_tag5_S_tiEvE5__tag+0x12>
    62c9:	48 89 d6             	mov    %rdx,%rsi
    62cc:	48 89 c7             	mov    %rax,%rdi
    62cf:	e8 fc f5 ff ff       	call   58d0 <_ZStlsISt11char_traitsIcEERSt13basic_ostreamIcT_ES5_PKc@plt>
    62d4:	48 89 c2             	mov    %rax,%rdx
    62d7:	8b 85 4c ff ff ff    	mov    -0xb4(%rbp),%eax
    62dd:	89 c6                	mov    %eax,%esi
    62df:	48 89 d7             	mov    %rdx,%rdi
    62e2:	e8 29 f8 ff ff       	call   5b10 <_ZNSolsEi@plt>
        for (int neighbor : neighbors) {
    62e7:	48 8d 85 60 ff ff ff 	lea    -0xa0(%rbp),%rax
    62ee:	48 89 c7             	mov    %rax,%rdi
    62f1:	e8 7a 14 00 00       	call   7770 <_ZN9__gnu_cxx17__normal_iteratorIPKiSt6vectorIiSaIiEEEppEv>
    62f6:	48 8d 95 68 ff ff ff 	lea    -0x98(%rbp),%rdx
    62fd:	48 8d 85 60 ff ff ff 	lea    -0xa0(%rbp),%rax
    6304:	48 89 d6             	mov    %rdx,%rsi
    6307:	48 89 c7             	mov    %rax,%rdi
    630a:	e8 56 0b 00 00       	call   6e65 <_ZN9__gnu_cxxeqIPKiSt6vectorIiSaIiEEEEbRKNS_17__normal_iteratorIT_T0_EESB_>
    630f:	83 f0 01             	xor    $0x1,%eax
    6312:	84 c0                	test   %al,%al
    6314:	75 8e                	jne    62a4 <_ZlsRSoRK7model_t+0x1cf>
        }
        os << "\n";
    6316:	48 8b 85 38 ff ff ff 	mov    -0xc8(%rbp),%rax
    631d:	48 8d 15 f4 fc 01 00 	lea    0x1fcf4(%rip),%rdx        # 26018 <_ZZNSt19_Sp_make_shared_tag5_S_tiEvE5__tag+0x10>
    6324:	48 89 d6             	mov    %rdx,%rsi
    6327:	48 89 c7             	mov    %rax,%rdi
    632a:	e8 a1 f5 ff ff       	call   58d0 <_ZStlsISt11char_traitsIcEERSt13basic_ostreamIcT_ES5_PKc@plt>
    for (const auto& neighbors : adj) {
    632f:	48 8d 85 50 ff ff ff 	lea    -0xb0(%rbp),%rax
    6336:	48 89 c7             	mov    %rax,%rdi
    6339:	e8 4a 13 00 00       	call   7688 <_ZN9__gnu_cxx17__normal_iteratorIPSt6vectorIiSaIiEES1_IS3_SaIS3_EEEppEv>
    633e:	48 8d 95 58 ff ff ff 	lea    -0xa8(%rbp),%rdx
    6345:	48 8d 85 50 ff ff ff 	lea    -0xb0(%rbp),%rax
    634c:	48 89 d6             	mov    %rdx,%rsi
    634f:	48 89 c7             	mov    %rax,%rdi
    6352:	e8 a8 0a 00 00       	call   6dff <_ZN9__gnu_cxxeqIPSt6vectorIiSaIiEES1_IS3_SaIS3_EEEEbRKNS_17__normal_iteratorIT_T0_EESC_>
    6357:	83 f0 01             	xor    $0x1,%eax
    635a:	84 c0                	test   %al,%al
    635c:	0f 85 d5 fe ff ff    	jne    6237 <_ZlsRSoRK7model_t+0x162>
    }
    return os;
    6362:	48 8b 9d 38 ff ff ff 	mov    -0xc8(%rbp),%rbx
}
    6369:	48 8d 45 90          	lea    -0x70(%rbp),%rax
    636d:	48 89 c7             	mov    %rax,%rdi
    6370:	e8 2f 12 00 00       	call   75a4 <_ZNSt6vectorIS_IiSaIiEESaIS1_EED1Ev>
    6375:	48 8d 45 b0          	lea    -0x50(%rbp),%rax
    6379:	48 89 c7             	mov    %rax,%rdi
    637c:	e8 5f 0a 00 00       	call   6de0 <_ZNSt3mapISt10shared_ptrI6node_tEiSt4lessIS2_ESaISt4pairIKS2_iEEED1Ev>
    6381:	48 89 d8             	mov    %rbx,%rax
    6384:	48 8b 55 e8          	mov    -0x18(%rbp),%rdx
    6388:	64 48 2b 14 25 28 00 	sub    %fs:0x28,%rdx
    638f:	00 00 
    6391:	74 52                	je     63e5 <_ZlsRSoRK7model_t+0x310>
    6393:	eb 4b                	jmp    63e0 <_ZlsRSoRK7model_t+0x30b>
    6395:	f3 0f 1e fa          	endbr64
    std::vector<std::vector<int>> adj(model.node_count);
    6399:	48 89 c3             	mov    %rax,%rbx
    639c:	48 8d 85 68 ff ff ff 	lea    -0x98(%rbp),%rax
    63a3:	48 89 c7             	mov    %rax,%rdi
    63a6:	e8 6b 11 00 00       	call   7516 <_ZNSaISt6vectorIiSaIiEEED1Ev>
    63ab:	eb 1c                	jmp    63c9 <_ZlsRSoRK7model_t+0x2f4>
    63ad:	f3 0f 1e fa          	endbr64
}
    63b1:	48 89 c3             	mov    %rax,%rbx
    63b4:	48 8d 45 90          	lea    -0x70(%rbp),%rax
    63b8:	48 89 c7             	mov    %rax,%rdi
    63bb:	e8 e4 11 00 00       	call   75a4 <_ZNSt6vectorIS_IiSaIiEESaIS1_EED1Ev>
    63c0:	eb 07                	jmp    63c9 <_ZlsRSoRK7model_t+0x2f4>
    63c2:	f3 0f 1e fa          	endbr64
    63c6:	48 89 c3             	mov    %rax,%rbx
    63c9:	48 8d 45 b0          	lea    -0x50(%rbp),%rax
    63cd:	48 89 c7             	mov    %rax,%rdi
    63d0:	e8 0b 0a 00 00       	call   6de0 <_ZNSt3mapISt10shared_ptrI6node_tEiSt4lessIS2_ESaISt4pairIKS2_iEEED1Ev>
    63d5:	48 89 d8             	mov    %rbx,%rax
    63d8:	48 89 c7             	mov    %rax,%rdi
    63db:	e8 40 f7 ff ff       	call   5b20 <_Unwind_Resume@plt>
    63e0:	e8 6b f5 ff ff       	call   5950 <__stack_chk_fail@plt>
    63e5:	48 8b 5d f8          	mov    -0x8(%rbp),%rbx
    63e9:	c9                   	leave
    63ea:	c3                   	ret

00000000000063eb <_Z10read_modelRSijj>:

std::shared_ptr<model_t> read_model(std::istream& is, GLuint vPosition, GLuint vColor) {
    63eb:	f3 0f 1e fa          	endbr64
    63ef:	55                   	push   %rbp
    63f0:	48 89 e5             	mov    %rsp,%rbp
    63f3:	53                   	push   %rbx
    63f4:	48 81 ec 88 00 00 00 	sub    $0x88,%rsp
    63fb:	48 89 7d 88          	mov    %rdi,-0x78(%rbp)
    63ff:	48 89 75 80          	mov    %rsi,-0x80(%rbp)
    6403:	89 95 7c ff ff ff    	mov    %edx,-0x84(%rbp)
    6409:	89 8d 78 ff ff ff    	mov    %ecx,-0x88(%rbp)
    640f:	64 48 8b 04 25 28 00 	mov    %fs:0x28,%rax
    6416:	00 00 
    6418:	48 89 45 e8          	mov    %rax,-0x18(%rbp)
    641c:	31 c0                	xor    %eax,%eax
    int node_count;
    is >> node_count;
    641e:	48 8d 55 94          	lea    -0x6c(%rbp),%rdx
    6422:	48 8b 45 80          	mov    -0x80(%rbp),%rax
    6426:	48 89 d6             	mov    %rdx,%rsi
    6429:	48 89 c7             	mov    %rax,%rdi
    642c:	e8 3f f3 ff ff       	call   5770 <_ZNSirsERi@plt>
    if (node_count == 0) {
    6431:	8b 45 94             	mov    -0x6c(%rbp),%eax
    6434:	85 c0                	test   %eax,%eax
    6436:	75 22                	jne    645a <_Z10read_modelRSijj+0x6f>
        return std::make_shared<model_t>(vPosition, vColor);
    6438:	48 8b 45 88          	mov    -0x78(%rbp),%rax
    643c:	48 8d 95 78 ff ff ff 	lea    -0x88(%rbp),%rdx
    6443:	48 8d 8d 7c ff ff ff 	lea    -0x84(%rbp),%rcx
    644a:	48 89 ce             	mov    %rcx,%rsi
    644d:	48 89 c7             	mov    %rax,%rdi
    6450:	e8 3f 13 00 00       	call   7794 <_ZSt11make_sharedI7model_tJRjS1_EESt10shared_ptrIT_EDpOT0_>
    6455:	e9 91 04 00 00       	jmp    68eb <_Z10read_modelRSijj+0x500>
    }
    std::vector<std::shared_ptr<node_t>> nodes(node_count);
    645a:	48 8d 45 c0          	lea    -0x40(%rbp),%rax
    645e:	48 89 c7             	mov    %rax,%rdi
    6461:	e8 d6 13 00 00       	call   783c <_ZNSaISt10shared_ptrI6node_tEEC1Ev>
    6466:	8b 45 94             	mov    -0x6c(%rbp),%eax
    6469:	48 63 c8             	movslq %eax,%rcx
    646c:	48 8d 55 c0          	lea    -0x40(%rbp),%rdx
    6470:	48 8d 45 d0          	lea    -0x30(%rbp),%rax
    6474:	48 89 ce             	mov    %rcx,%rsi
    6477:	48 89 c7             	mov    %rax,%rdi
    647a:	e8 ed 13 00 00       	call   786c <_ZNSt6vectorISt10shared_ptrI6node_tESaIS2_EEC1EmRKS3_>
    647f:	48 8d 45 c0          	lea    -0x40(%rbp),%rax
    6483:	48 89 c7             	mov    %rax,%rdi
    6486:	e8 d1 13 00 00       	call   785c <_ZNSaISt10shared_ptrI6node_tEED1Ev>
    for (int i = 0; i < node_count; ++i) {
    648b:	c7 45 a4 00 00 00 00 	movl   $0x0,-0x5c(%rbp)
    6492:	e9 60 02 00 00       	jmp    66f7 <_Z10read_modelRSijj+0x30c>
        int shapetype_int, level;
        is >> shapetype_int >> level;
    6497:	48 8d 55 98          	lea    -0x68(%rbp),%rdx
    649b:	48 8b 45 80          	mov    -0x80(%rbp),%rax
    649f:	48 89 d6             	mov    %rdx,%rsi
    64a2:	48 89 c7             	mov    %rax,%rdi
    64a5:	e8 c6 f2 ff ff       	call   5770 <_ZNSirsERi@plt>
    64aa:	48 89 c2             	mov    %rax,%rdx
    64ad:	48 8d 45 9c          	lea    -0x64(%rbp),%rax
    64b1:	48 89 c6             	mov    %rax,%rsi
    64b4:	48 89 d7             	mov    %rdx,%rdi
    64b7:	e8 b4 f2 ff ff       	call   5770 <_ZNSirsERi@plt>
        shape_type_t shapetype = static_cast<shape_type_t>(shapetype_int);
    64bc:	8b 45 98             	mov    -0x68(%rbp),%eax
    64bf:	89 45 a0             	mov    %eax,-0x60(%rbp)
        nodes[i] = std::make_shared<node_t>(std::weak_ptr<node_t>{}, shapetype, level, vPosition, vColor);
    64c2:	48 c7 45 b0 00 00 00 	movq   $0x0,-0x50(%rbp)
    64c9:	00 
    64ca:	48 c7 45 b8 00 00 00 	movq   $0x0,-0x48(%rbp)
    64d1:	00 
    64d2:	48 8d 45 b0          	lea    -0x50(%rbp),%rax
    64d6:	48 89 c7             	mov    %rax,%rdi
    64d9:	e8 56 0a 00 00       	call   6f34 <_ZNSt8weak_ptrI6node_tEC1Ev>
    64de:	48 8d 45 c0          	lea    -0x40(%rbp),%rax
    64e2:	4c 8d 85 78 ff ff ff 	lea    -0x88(%rbp),%r8
    64e9:	48 8d bd 7c ff ff ff 	lea    -0x84(%rbp),%rdi
    64f0:	48 8d 4d 9c          	lea    -0x64(%rbp),%rcx
    64f4:	48 8d 55 a0          	lea    -0x60(%rbp),%rdx
    64f8:	48 8d 75 b0          	lea    -0x50(%rbp),%rsi
    64fc:	4d 89 c1             	mov    %r8,%r9
    64ff:	49 89 f8             	mov    %rdi,%r8
    6502:	48 89 c7             	mov    %rax,%rdi
    6505:	e8 a8 14 00 00       	call   79b2 <_ZSt11make_sharedI6node_tJSt8weak_ptrIS0_ER12shape_type_tRiRjS6_EESt10shared_ptrIT_EDpOT0_>
    650a:	8b 45 a4             	mov    -0x5c(%rbp),%eax
    650d:	48 63 d0             	movslq %eax,%rdx
    6510:	48 8d 45 d0          	lea    -0x30(%rbp),%rax
    6514:	48 89 d6             	mov    %rdx,%rsi
    6517:	48 89 c7             	mov    %rax,%rdi
    651a:	e8 13 14 00 00       	call   7932 <_ZNSt6vectorISt10shared_ptrI6node_tESaIS2_EEixEm>
    651f:	48 89 c2             	mov    %rax,%rdx
    6522:	48 8d 45 c0          	lea    -0x40(%rbp),%rax
    6526:	48 89 c6             	mov    %rax,%rsi
    6529:	48 89 d7             	mov    %rdx,%rdi
    652c:	e8 51 15 00 00       	call   7a82 <_ZNSt10shared_ptrI6node_tEaSEOS1_>
    6531:	48 8d 45 c0          	lea    -0x40(%rbp),%rax
    6535:	48 89 c7             	mov    %rax,%rdi
    6538:	e8 5b 0a 00 00       	call   6f98 <_ZNSt10shared_ptrI6node_tED1Ev>
    653d:	48 8d 45 b0          	lea    -0x50(%rbp),%rax
    6541:	48 89 c7             	mov    %rax,%rdi
    6544:	e8 0b 0a 00 00       	call   6f54 <_ZNSt8weak_ptrI6node_tED1Ev>
        is >> nodes[i]->xrot >> nodes[i]->yrot >> nodes[i]->zrot;
    6549:	8b 45 a4             	mov    -0x5c(%rbp),%eax
    654c:	48 63 d0             	movslq %eax,%rdx
    654f:	48 8d 45 d0          	lea    -0x30(%rbp),%rax
    6553:	48 89 d6             	mov    %rdx,%rsi
    6556:	48 89 c7             	mov    %rax,%rdi
    6559:	e8 d4 13 00 00       	call   7932 <_ZNSt6vectorISt10shared_ptrI6node_tESaIS2_EEixEm>
    655e:	48 89 c7             	mov    %rax,%rdi
    6561:	e8 5c 0d 00 00       	call   72c2 <_ZNKSt19__shared_ptr_accessI6node_tLN9__gnu_cxx12_Lock_policyE2ELb0ELb0EEptEv>
    6566:	48 8d 50 40          	lea    0x40(%rax),%rdx
    656a:	48 8b 45 80          	mov    -0x80(%rbp),%rax
    656e:	48 89 d6             	mov    %rdx,%rsi
    6571:	48 89 c7             	mov    %rax,%rdi
    6574:	e8 b7 f0 ff ff       	call   5630 <_ZNSirsERf@plt>
    6579:	48 89 c3             	mov    %rax,%rbx
    657c:	8b 45 a4             	mov    -0x5c(%rbp),%eax
    657f:	48 63 d0             	movslq %eax,%rdx
    6582:	48 8d 45 d0          	lea    -0x30(%rbp),%rax
    6586:	48 89 d6             	mov    %rdx,%rsi
    6589:	48 89 c7             	mov    %rax,%rdi
    658c:	e8 a1 13 00 00       	call   7932 <_ZNSt6vectorISt10shared_ptrI6node_tESaIS2_EEixEm>
    6591:	48 89 c7             	mov    %rax,%rdi
    6594:	e8 29 0d 00 00       	call   72c2 <_ZNKSt19__shared_ptr_accessI6node_tLN9__gnu_cxx12_Lock_policyE2ELb0ELb0EEptEv>
    6599:	48 83 c0 44          	add    $0x44,%rax
    659d:	48 89 c6             	mov    %rax,%rsi
    65a0:	48 89 df             	mov    %rbx,%rdi
    65a3:	e8 88 f0 ff ff       	call   5630 <_ZNSirsERf@plt>
    65a8:	48 89 c3             	mov    %rax,%rbx
    65ab:	8b 45 a4             	mov    -0x5c(%rbp),%eax
    65ae:	48 63 d0             	movslq %eax,%rdx
    65b1:	48 8d 45 d0          	lea    -0x30(%rbp),%rax
    65b5:	48 89 d6             	mov    %rdx,%rsi
    65b8:	48 89 c7             	mov    %rax,%rdi
    65bb:	e8 72 13 00 00       	call   7932 <_ZNSt6vectorISt10shared_ptrI6node_tESaIS2_EEixEm>
    65c0:	48 89 c7             	mov    %rax,%rdi
    65c3:	e8 fa 0c 00 00       	call   72c2 <_ZNKSt19__shared_ptr_accessI6node_tLN9__gnu_cxx12_Lock_policyE2ELb0ELb0EEptEv>
    65c8:	48 83 c0 48          	add    $0x48,%rax
    65cc:	48 89 c6             	mov    %rax,%rsi
    65cf:	48 89 df             	mov    %rbx,%rdi
    65d2:	e8 59 f0 ff ff       	call   5630 <_ZNSirsERf@plt>
        is >> nodes[i]->xpos >> nodes[i]->ypos >> nodes[i]->zpos;
    65d7:	8b 45 a4             	mov    -0x5c(%rbp),%eax
    65da:	48 63 d0             	movslq %eax,%rdx
    65dd:	48 8d 45 d0          	lea    -0x30(%rbp),%rax
    65e1:	48 89 d6             	mov    %rdx,%rsi
    65e4:	48 89 c7             	mov    %rax,%rdi
    65e7:	e8 46 13 00 00       	call   7932 <_ZNSt6vectorISt10shared_ptrI6node_tESaIS2_EEixEm>
    65ec:	48 89 c7             	mov    %rax,%rdi
    65ef:	e8 ce 0c 00 00       	call   72c2 <_ZNKSt19__shared_ptr_accessI6node_tLN9__gnu_cxx12_Lock_policyE2ELb0ELb0EEptEv>
    65f4:	48 8d 50 4c          	lea    0x4c(%rax),%rdx
    65f8:	48 8b 45 80          	mov    -0x80(%rbp),%rax
    65fc:	48 89 d6             	mov    %rdx,%rsi
    65ff:	48 89 c7             	mov    %rax,%rdi
    6602:	e8 29 f0 ff ff       	call   5630 <_ZNSirsERf@plt>
    6607:	48 89 c3             	mov    %rax,%rbx
    660a:	8b 45 a4             	mov    -0x5c(%rbp),%eax
    660d:	48 63 d0             	movslq %eax,%rdx
    6610:	48 8d 45 d0          	lea    -0x30(%rbp),%rax
    6614:	48 89 d6             	mov    %rdx,%rsi
    6617:	48 89 c7             	mov    %rax,%rdi
    661a:	e8 13 13 00 00       	call   7932 <_ZNSt6vectorISt10shared_ptrI6node_tESaIS2_EEixEm>
    661f:	48 89 c7             	mov    %rax,%rdi
    6622:	e8 9b 0c 00 00       	call   72c2 <_ZNKSt19__shared_ptr_accessI6node_tLN9__gnu_cxx12_Lock_policyE2ELb0ELb0EEptEv>
    6627:	48 83 c0 50          	add    $0x50,%rax
    662b:	48 89 c6             	mov    %rax,%rsi
    662e:	48 89 df             	mov    %rbx,%rdi
    6631:	e8 fa ef ff ff       	call   5630 <_ZNSirsERf@plt>
    6636:	48 89 c3             	mov    %rax,%rbx
    6639:	8b 45 a4             	mov    -0x5c(%rbp),%eax
    663c:	48 63 d0             	movslq %eax,%rdx
    663f:	48 8d 45 d0          	lea    -0x30(%rbp),%rax
    6643:	48 89 d6             	mov    %rdx,%rsi
    6646:	48 89 c7             	mov    %rax,%rdi
    6649:	e8 e4 12 00 00       	call   7932 <_ZNSt6vectorISt10shared_ptrI6node_tESaIS2_EEixEm>
    664e:	48 89 c7             	mov    %rax,%rdi
    6651:	e8 6c 0c 00 00       	call   72c2 <_ZNKSt19__shared_ptr_accessI6node_tLN9__gnu_cxx12_Lock_policyE2ELb0ELb0EEptEv>
    6656:	48 83 c0 54          	add    $0x54,%rax
    665a:	48 89 c6             	mov    %rax,%rsi
    665d:	48 89 df             	mov    %rbx,%rdi
    6660:	e8 cb ef ff ff       	call   5630 <_ZNSirsERf@plt>
        is >> nodes[i]->xscale >> nodes[i]->yscale >> nodes[i]->zscale;
    6665:	8b 45 a4             	mov    -0x5c(%rbp),%eax
    6668:	48 63 d0             	movslq %eax,%rdx
    666b:	48 8d 45 d0          	lea    -0x30(%rbp),%rax
    666f:	48 89 d6             	mov    %rdx,%rsi
    6672:	48 89 c7             	mov    %rax,%rdi
    6675:	e8 b8 12 00 00       	call   7932 <_ZNSt6vectorISt10shared_ptrI6node_tESaIS2_EEixEm>
    667a:	48 89 c7             	mov    %rax,%rdi
    667d:	e8 40 0c 00 00       	call   72c2 <_ZNKSt19__shared_ptr_accessI6node_tLN9__gnu_cxx12_Lock_policyE2ELb0ELb0EEptEv>
    6682:	48 8d 50 58          	lea    0x58(%rax),%rdx
    6686:	48 8b 45 80          	mov    -0x80(%rbp),%rax
    668a:	48 89 d6             	mov    %rdx,%rsi
    668d:	48 89 c7             	mov    %rax,%rdi
    6690:	e8 9b ef ff ff       	call   5630 <_ZNSirsERf@plt>
    6695:	48 89 c3             	mov    %rax,%rbx
    6698:	8b 45 a4             	mov    -0x5c(%rbp),%eax
    669b:	48 63 d0             	movslq %eax,%rdx
    669e:	48 8d 45 d0          	lea    -0x30(%rbp),%rax
    66a2:	48 89 d6             	mov    %rdx,%rsi
    66a5:	48 89 c7             	mov    %rax,%rdi
    66a8:	e8 85 12 00 00       	call   7932 <_ZNSt6vectorISt10shared_ptrI6node_tESaIS2_EEixEm>
    66ad:	48 89 c7             	mov    %rax,%rdi
    66b0:	e8 0d 0c 00 00       	call   72c2 <_ZNKSt19__shared_ptr_accessI6node_tLN9__gnu_cxx12_Lock_policyE2ELb0ELb0EEptEv>
    66b5:	48 83 c0 5c          	add    $0x5c,%rax
    66b9:	48 89 c6             	mov    %rax,%rsi
    66bc:	48 89 df             	mov    %rbx,%rdi
    66bf:	e8 6c ef ff ff       	call   5630 <_ZNSirsERf@plt>
    66c4:	48 89 c3             	mov    %rax,%rbx
    66c7:	8b 45 a4             	mov    -0x5c(%rbp),%eax
    66ca:	48 63 d0             	movslq %eax,%rdx
    66cd:	48 8d 45 d0          	lea    -0x30(%rbp),%rax
    66d1:	48 89 d6             	mov    %rdx,%rsi
    66d4:	48 89 c7             	mov    %rax,%rdi
    66d7:	e8 56 12 00 00       	call   7932 <_ZNSt6vectorISt10shared_ptrI6node_tESaIS2_EEixEm>
    66dc:	48 89 c7             	mov    %rax,%rdi
    66df:	e8 de 0b 00 00       	call   72c2 <_ZNKSt19__shared_ptr_accessI6node_tLN9__gnu_cxx12_Lock_policyE2ELb0ELb0EEptEv>
    66e4:	48 83 c0 60          	add    $0x60,%rax
    66e8:	48 89 c6             	mov    %rax,%rsi
    66eb:	48 89 df             	mov    %rbx,%rdi
    66ee:	e8 3d ef ff ff       	call   5630 <_ZNSirsERf@plt>
    for (int i = 0; i < node_count; ++i) {
    66f3:	83 45 a4 01          	addl   $0x1,-0x5c(%rbp)
    66f7:	8b 45 94             	mov    -0x6c(%rbp),%eax
    66fa:	39 45 a4             	cmp    %eax,-0x5c(%rbp)
    66fd:	0f 8c 94 fd ff ff    	jl     6497 <_Z10read_modelRSijj+0xac>
    }
    for (int i = 0; i < node_count; ++i) {
    6703:	c7 45 a8 00 00 00 00 	movl   $0x0,-0x58(%rbp)
    670a:	e9 ca 00 00 00       	jmp    67d9 <_Z10read_modelRSijj+0x3ee>
        int child_count;
        is >> child_count;
    670f:	48 8d 55 b0          	lea    -0x50(%rbp),%rdx
    6713:	48 8b 45 80          	mov    -0x80(%rbp),%rax
    6717:	48 89 d6             	mov    %rdx,%rsi
    671a:	48 89 c7             	mov    %rax,%rdi
    671d:	e8 4e f0 ff ff       	call   5770 <_ZNSirsERi@plt>
        for (int j = 0; j < child_count; ++j) {
    6722:	c7 45 ac 00 00 00 00 	movl   $0x0,-0x54(%rbp)
    6729:	e9 9b 00 00 00       	jmp    67c9 <_Z10read_modelRSijj+0x3de>
            int child_index;
            is >> child_index;
    672e:	48 8d 55 c0          	lea    -0x40(%rbp),%rdx
    6732:	48 8b 45 80          	mov    -0x80(%rbp),%rax
    6736:	48 89 d6             	mov    %rdx,%rsi
    6739:	48 89 c7             	mov    %rax,%rdi
    673c:	e8 2f f0 ff ff       	call   5770 <_ZNSirsERi@plt>
            nodes[i]->add_child(nodes[child_index]);
    6741:	8b 45 a8             	mov    -0x58(%rbp),%eax
    6744:	48 63 d0             	movslq %eax,%rdx
    6747:	48 8d 45 d0          	lea    -0x30(%rbp),%rax
    674b:	48 89 d6             	mov    %rdx,%rsi
    674e:	48 89 c7             	mov    %rax,%rdi
    6751:	e8 dc 11 00 00       	call   7932 <_ZNSt6vectorISt10shared_ptrI6node_tESaIS2_EEixEm>
    6756:	48 89 c7             	mov    %rax,%rdi
    6759:	e8 64 0b 00 00       	call   72c2 <_ZNKSt19__shared_ptr_accessI6node_tLN9__gnu_cxx12_Lock_policyE2ELb0ELb0EEptEv>
    675e:	48 89 c3             	mov    %rax,%rbx
    6761:	8b 45 c0             	mov    -0x40(%rbp),%eax
    6764:	48 63 d0             	movslq %eax,%rdx
    6767:	48 8d 45 d0          	lea    -0x30(%rbp),%rax
    676b:	48 89 d6             	mov    %rdx,%rsi
    676e:	48 89 c7             	mov    %rax,%rdi
    6771:	e8 bc 11 00 00       	call   7932 <_ZNSt6vectorISt10shared_ptrI6node_tESaIS2_EEixEm>
    6776:	48 89 c6             	mov    %rax,%rsi
    6779:	48 89 df             	mov    %rbx,%rdi
    677c:	e8 ed 62 01 00       	call   1ca6e <_ZN6node_t9add_childERKSt10shared_ptrIS_E>
            nodes[child_index]->parent = nodes[i];
    6781:	8b 45 a8             	mov    -0x58(%rbp),%eax
    6784:	48 63 d0             	movslq %eax,%rdx
    6787:	48 8d 45 d0          	lea    -0x30(%rbp),%rax
    678b:	48 89 d6             	mov    %rdx,%rsi
    678e:	48 89 c7             	mov    %rax,%rdi
    6791:	e8 9c 11 00 00       	call   7932 <_ZNSt6vectorISt10shared_ptrI6node_tESaIS2_EEixEm>
    6796:	48 89 c3             	mov    %rax,%rbx
    6799:	8b 45 c0             	mov    -0x40(%rbp),%eax
    679c:	48 63 d0             	movslq %eax,%rdx
    679f:	48 8d 45 d0          	lea    -0x30(%rbp),%rax
    67a3:	48 89 d6             	mov    %rdx,%rsi
    67a6:	48 89 c7             	mov    %rax,%rdi
    67a9:	e8 84 11 00 00       	call   7932 <_ZNSt6vectorISt10shared_ptrI6node_tESaIS2_EEixEm>
    67ae:	48 89 c7             	mov    %rax,%rdi
    67b1:	e8 0c 0b 00 00       	call   72c2 <_ZNKSt19__shared_ptr_accessI6node_tLN9__gnu_cxx12_Lock_policyE2ELb0ELb0EEptEv>
    67b6:	48 83 c0 20          	add    $0x20,%rax
    67ba:	48 89 de             	mov    %rbx,%rsi
    67bd:	48 89 c7             	mov    %rax,%rdi
    67c0:	e8 f7 12 00 00       	call   7abc <_ZNSt8weak_ptrI6node_tEaSIS0_EENSt9enable_ifIXsrSt13is_assignableIRSt10__weak_ptrIS0_LN9__gnu_cxx12_Lock_policyE2EERKSt10shared_ptrIT_EE5valueERS1_E4typeESE_>
        for (int j = 0; j < child_count; ++j) {
    67c5:	83 45 ac 01          	addl   $0x1,-0x54(%rbp)
    67c9:	8b 45 b0             	mov    -0x50(%rbp),%eax
    67cc:	39 45 ac             	cmp    %eax,-0x54(%rbp)
    67cf:	0f 8c 59 ff ff ff    	jl     672e <_Z10read_modelRSijj+0x343>
    for (int i = 0; i < node_count; ++i) {
    67d5:	83 45 a8 01          	addl   $0x1,-0x58(%rbp)
    67d9:	8b 45 94             	mov    -0x6c(%rbp),%eax
    67dc:	39 45 a8             	cmp    %eax,-0x58(%rbp)
    67df:	0f 8c 2a ff ff ff    	jl     670f <_Z10read_modelRSijj+0x324>
        }
    }
    auto model = std::make_shared<model_t>(vPosition, vColor);
    67e5:	48 8d 45 c0          	lea    -0x40(%rbp),%rax
    67e9:	48 8d 95 78 ff ff ff 	lea    -0x88(%rbp),%rdx
    67f0:	48 8d 8d 7c ff ff ff 	lea    -0x84(%rbp),%rcx
    67f7:	48 89 ce             	mov    %rcx,%rsi
    67fa:	48 89 c7             	mov    %rax,%rdi
    67fd:	e8 92 0f 00 00       	call   7794 <_ZSt11make_sharedI7model_tJRjS1_EESt10shared_ptrIT_EDpOT0_>
    model->root_node = nodes[0];
    6802:	48 8d 45 d0          	lea    -0x30(%rbp),%rax
    6806:	be 00 00 00 00       	mov    $0x0,%esi
    680b:	48 89 c7             	mov    %rax,%rdi
    680e:	e8 1f 11 00 00       	call   7932 <_ZNSt6vectorISt10shared_ptrI6node_tESaIS2_EEixEm>
    6813:	48 89 c3             	mov    %rax,%rbx
    6816:	48 8d 45 c0          	lea    -0x40(%rbp),%rax
    681a:	48 89 c7             	mov    %rax,%rdi
    681d:	e8 c8 12 00 00       	call   7aea <_ZNKSt19__shared_ptr_accessI7model_tLN9__gnu_cxx12_Lock_policyE2ELb0ELb0EEptEv>
    6822:	48 83 c0 08          	add    $0x8,%rax
    6826:	48 89 de             	mov    %rbx,%rsi
    6829:	48 89 c7             	mov    %rax,%rdi
    682c:	e8 cb 07 00 00       	call   6ffc <_ZNSt10shared_ptrI6node_tEaSERKS1_>
    model->node_count = node_count;
    6831:	8b 5d 94             	mov    -0x6c(%rbp),%ebx
    6834:	48 8d 45 c0          	lea    -0x40(%rbp),%rax
    6838:	48 89 c7             	mov    %rax,%rdi
    683b:	e8 aa 12 00 00       	call   7aea <_ZNKSt19__shared_ptr_accessI7model_tLN9__gnu_cxx12_Lock_policyE2ELb0ELb0EEptEv>
    6840:	89 18                	mov    %ebx,(%rax)
    model->selected_node = model->root_node;
    6842:	48 8d 45 c0          	lea    -0x40(%rbp),%rax
    6846:	48 89 c7             	mov    %rax,%rdi
    6849:	e8 9c 12 00 00       	call   7aea <_ZNKSt19__shared_ptr_accessI7model_tLN9__gnu_cxx12_Lock_policyE2ELb0ELb0EEptEv>
    684e:	48 8d 58 08          	lea    0x8(%rax),%rbx
    6852:	48 8d 45 c0          	lea    -0x40(%rbp),%rax
    6856:	48 89 c7             	mov    %rax,%rdi
    6859:	e8 8c 12 00 00       	call   7aea <_ZNKSt19__shared_ptr_accessI7model_tLN9__gnu_cxx12_Lock_policyE2ELb0ELb0EEptEv>
    685e:	48 83 c0 18          	add    $0x18,%rax
    6862:	48 89 de             	mov    %rbx,%rsi
    6865:	48 89 c7             	mov    %rax,%rdi
    6868:	e8 4f 12 00 00       	call   7abc <_ZNSt8weak_ptrI6node_tEaSIS0_EENSt9enable_ifIXsrSt13is_assignableIRSt10__weak_ptrIS0_LN9__gnu_cxx12_Lock_policyE2EERKSt10shared_ptrIT_EE5valueERS1_E4typeESE_>
    return model;
    686d:	48 8d 55 c0          	lea    -0x40(%rbp),%rdx
    6871:	48 8b 45 88          	mov    -0x78(%rbp),%rax
    6875:	48 89 d6             	mov    %rdx,%rsi
    6878:	48 89 c7             	mov    %rax,%rdi
    687b:	e8 f4 12 00 00       	call   7b74 <_ZNSt10shared_ptrI7model_tEC1EOS1_>
}
    6880:	48 8d 45 c0          	lea    -0x40(%rbp),%rax
    6884:	48 89 c7             	mov    %rax,%rdi
    6887:	e8 64 06 00 00       	call   6ef0 <_ZNSt10shared_ptrI7model_tED1Ev>
    688c:	48 8d 45 d0          	lea    -0x30(%rbp),%rax
    6890:	48 89 c7             	mov    %rax,%rdi
    6893:	e8 52 10 00 00       	call   78ea <_ZNSt6vectorISt10shared_ptrI6node_tESaIS2_EED1Ev>
    6898:	eb 51                	jmp    68eb <_Z10read_modelRSijj+0x500>
    689a:	f3 0f 1e fa          	endbr64
    std::vector<std::shared_ptr<node_t>> nodes(node_count);
    689e:	48 89 c3             	mov    %rax,%rbx
    68a1:	48 8d 45 c0          	lea    -0x40(%rbp),%rax
    68a5:	48 89 c7             	mov    %rax,%rdi
    68a8:	e8 af 0f 00 00       	call   785c <_ZNSaISt10shared_ptrI6node_tEED1Ev>
    68ad:	48 89 d8             	mov    %rbx,%rax
    68b0:	48 89 c7             	mov    %rax,%rdi
    68b3:	e8 68 f2 ff ff       	call   5b20 <_Unwind_Resume@plt>
    68b8:	f3 0f 1e fa          	endbr64
        nodes[i] = std::make_shared<node_t>(std::weak_ptr<node_t>{}, shapetype, level, vPosition, vColor);
    68bc:	48 89 c3             	mov    %rax,%rbx
    68bf:	48 8d 45 b0          	lea    -0x50(%rbp),%rax
    68c3:	48 89 c7             	mov    %rax,%rdi
    68c6:	e8 89 06 00 00       	call   6f54 <_ZNSt8weak_ptrI6node_tED1Ev>
    68cb:	eb 07                	jmp    68d4 <_Z10read_modelRSijj+0x4e9>
    68cd:	f3 0f 1e fa          	endbr64
}
    68d1:	48 89 c3             	mov    %rax,%rbx
    68d4:	48 8d 45 d0          	lea    -0x30(%rbp),%rax
    68d8:	48 89 c7             	mov    %rax,%rdi
    68db:	e8 0a 10 00 00       	call   78ea <_ZNSt6vectorISt10shared_ptrI6node_tESaIS2_EED1Ev>
    68e0:	48 89 d8             	mov    %rbx,%rax
    68e3:	48 89 c7             	mov    %rax,%rdi
    68e6:	e8 35 f2 ff ff       	call   5b20 <_Unwind_Resume@plt>
    68eb:	48 8b 45 e8          	mov    -0x18(%rbp),%rax
    68ef:	64 48 2b 04 25 28 00 	sub    %fs:0x28,%rax
    68f6:	00 00 
    68f8:	74 05                	je     68ff <_Z10read_modelRSijj+0x514>
    68fa:	e8 51 f0 ff ff       	call   5950 <__stack_chk_fail@plt>
    68ff:	48 8b 45 88          	mov    -0x78(%rbp),%rax
    6903:	48 8b 5d f8          	mov    -0x8(%rbp),%rbx
    6907:	c9                   	leave
    6908:	c3                   	ret

0000000000006909 <_ZrsRSiR7model_t>:

std::istream& operator>>(std::istream& is, model_t& model) {
    6909:	f3 0f 1e fa          	endbr64
    690d:	55                   	push   %rbp
    690e:	48 89 e5             	mov    %rsp,%rbp
    6911:	53                   	push   %rbx
    6912:	48 83 ec 38          	sub    $0x38,%rsp
    6916:	48 89 7d c8          	mov    %rdi,-0x38(%rbp)
    691a:	48 89 75 c0          	mov    %rsi,-0x40(%rbp)
    691e:	64 48 8b 04 25 28 00 	mov    %fs:0x28,%rax
    6925:	00 00 
    6927:	48 89 45 e8          	mov    %rax,-0x18(%rbp)
    692b:	31 c0                	xor    %eax,%eax
    auto new_model = read_model(is, model.vPosition, model.vColor);
    692d:	48 8b 45 c0          	mov    -0x40(%rbp),%rax
    6931:	8b 48 2c             	mov    0x2c(%rax),%ecx
    6934:	48 8b 45 c0          	mov    -0x40(%rbp),%rax
    6938:	8b 50 28             	mov    0x28(%rax),%edx
    693b:	48 8d 45 d0          	lea    -0x30(%rbp),%rax
    693f:	48 8b 75 c8          	mov    -0x38(%rbp),%rsi
    6943:	48 89 c7             	mov    %rax,%rdi
    6946:	e8 a0 fa ff ff       	call   63eb <_Z10read_modelRSijj>
    model.root_node = new_model->root_node;
    694b:	48 8d 45 d0          	lea    -0x30(%rbp),%rax
    694f:	48 89 c7             	mov    %rax,%rdi
    6952:	e8 93 11 00 00       	call   7aea <_ZNKSt19__shared_ptr_accessI7model_tLN9__gnu_cxx12_Lock_policyE2ELb0ELb0EEptEv>
    6957:	48 8d 50 08          	lea    0x8(%rax),%rdx
    695b:	48 8b 45 c0          	mov    -0x40(%rbp),%rax
    695f:	48 83 c0 08          	add    $0x8,%rax
    6963:	48 89 d6             	mov    %rdx,%rsi
    6966:	48 89 c7             	mov    %rax,%rdi
    6969:	e8 8e 06 00 00       	call   6ffc <_ZNSt10shared_ptrI6node_tEaSERKS1_>
    model.node_count = new_model->node_count;
    696e:	48 8d 45 d0          	lea    -0x30(%rbp),%rax
    6972:	48 89 c7             	mov    %rax,%rdi
    6975:	e8 70 11 00 00       	call   7aea <_ZNKSt19__shared_ptr_accessI7model_tLN9__gnu_cxx12_Lock_policyE2ELb0ELb0EEptEv>
    697a:	8b 10                	mov    (%rax),%edx
    697c:	48 8b 45 c0          	mov    -0x40(%rbp),%rax
    6980:	89 10                	mov    %edx,(%rax)
    model.selected_node = new_model->selected_node;
    6982:	48 8d 45 d0          	lea    -0x30(%rbp),%rax
    6986:	48 89 c7             	mov    %rax,%rdi
    6989:	e8 5c 11 00 00       	call   7aea <_ZNKSt19__shared_ptr_accessI7model_tLN9__gnu_cxx12_Lock_policyE2ELb0ELb0EEptEv>
    698e:	48 8d 50 18          	lea    0x18(%rax),%rdx
    6992:	48 8b 45 c0          	mov    -0x40(%rbp),%rax
    6996:	48 83 c0 18          	add    $0x18,%rax
    699a:	48 89 d6             	mov    %rdx,%rsi
    699d:	48 89 c7             	mov    %rax,%rdi
    69a0:	e8 c9 06 00 00       	call   706e <_ZNSt8weak_ptrI6node_tEaSERKS1_>
    return is;
    69a5:	48 8b 5d c8          	mov    -0x38(%rbp),%rbx
    69a9:	48 8d 45 d0          	lea    -0x30(%rbp),%rax
    69ad:	48 89 c7             	mov    %rax,%rdi
    69b0:	e8 3b 05 00 00       	call   6ef0 <_ZNSt10shared_ptrI7model_tED1Ev>
    return is;
    69b5:	48 89 d8             	mov    %rbx,%rax
    69b8:	48 8b 55 e8          	mov    -0x18(%rbp),%rdx
    69bc:	64 48 2b 14 25 28 00 	sub    %fs:0x28,%rdx
    69c3:	00 00 
    69c5:	74 05                	je     69cc <_ZrsRSiR7model_t+0xc3>
    69c7:	e8 84 ef ff ff       	call   5950 <__stack_chk_fail@plt>
    69cc:	48 8b 5d f8          	mov    -0x8(%rbp),%rbx
    69d0:	c9                   	leave
    69d1:	c3                   	ret

00000000000069d2 <_Z41__static_initialization_and_destruction_0ii>:
    69d2:	f3 0f 1e fa          	endbr64
    69d6:	55                   	push   %rbp
    69d7:	48 89 e5             	mov    %rsp,%rbp
    69da:	48 83 ec 10          	sub    $0x10,%rsp
    69de:	89 7d fc             	mov    %edi,-0x4(%rbp)
    69e1:	89 75 f8             	mov    %esi,-0x8(%rbp)
    69e4:	83 7d fc 01          	cmpl   $0x1,-0x4(%rbp)
    69e8:	75 3b                	jne    6a25 <_Z41__static_initialization_and_destruction_0ii+0x53>
    69ea:	81 7d f8 ff ff 00 00 	cmpl   $0xffff,-0x8(%rbp)
    69f1:	75 32                	jne    6a25 <_Z41__static_initialization_and_destruction_0ii+0x53>
  extern wostream wclog;	/// Linked to standard error (buffered)
#endif
  ///@}

  // For construction of filebuffers for cout, cin, cerr, clog et. al.
  static ios_base::Init __ioinit;
    69f3:	48 8d 05 57 fb 02 00 	lea    0x2fb57(%rip),%rax        # 36551 <_ZStL8__ioinit>
    69fa:	48 89 c7             	mov    %rax,%rdi
    69fd:	e8 6e f0 ff ff       	call   5a70 <_ZNSt8ios_base4InitC1Ev@plt>
    6a02:	48 8d 05 ff f5 02 00 	lea    0x2f5ff(%rip),%rax        # 36008 <__dso_handle>
    6a09:	48 89 c2             	mov    %rax,%rdx
    6a0c:	48 8d 05 3e fb 02 00 	lea    0x2fb3e(%rip),%rax        # 36551 <_ZStL8__ioinit>
    6a13:	48 89 c6             	mov    %rax,%rsi
    6a16:	48 8b 05 db f5 02 00 	mov    0x2f5db(%rip),%rax        # 35ff8 <_ZNSt8ios_base4InitD1Ev@GLIBCXX_3.4>
    6a1d:	48 89 c7             	mov    %rax,%rdi
    6a20:	e8 5b ee ff ff       	call   5880 <__cxa_atexit@plt>
    6a25:	90                   	nop
    6a26:	c9                   	leave
    6a27:	c3                   	ret

0000000000006a28 <_GLOBAL__sub_I__Z15dfs_print_nodesRKSt10shared_ptrI6node_tERSoRSt6vectorIS5_IiSaIiEESaIS7_EERSt3mapIS1_iSt4lessIS1_ESaISt4pairIS2_iEEERi>:
    6a28:	f3 0f 1e fa          	endbr64
    6a2c:	55                   	push   %rbp
    6a2d:	48 89 e5             	mov    %rsp,%rbp
    6a30:	be ff ff 00 00       	mov    $0xffff,%esi
    6a35:	bf 01 00 00 00       	mov    $0x1,%edi
    6a3a:	e8 93 ff ff ff       	call   69d2 <_Z41__static_initialization_and_destruction_0ii>
    6a3f:	5d                   	pop    %rbp
    6a40:	c3                   	ret

0000000000006a41 <_ZSt23__is_constant_evaluatedv>:
    6a41:	f3 0f 1e fa          	endbr64
    6a45:	55                   	push   %rbp
    6a46:	48 89 e5             	mov    %rsp,%rbp
    6a49:	b8 00 00 00 00       	mov    $0x0,%eax
    6a4e:	5d                   	pop    %rbp
    6a4f:	c3                   	ret

0000000000006a50 <_ZnwmPv>:
#endif // __cpp_sized_deallocation
#endif // __cpp_aligned_new

// Default placement versions of operator new.
_GLIBCXX_NODISCARD inline void* operator new(std::size_t, void* __p) _GLIBCXX_USE_NOEXCEPT
{ return __p; }
    6a50:	f3 0f 1e fa          	endbr64
    6a54:	55                   	push   %rbp
    6a55:	48 89 e5             	mov    %rsp,%rbp
    6a58:	48 89 7d f8          	mov    %rdi,-0x8(%rbp)
    6a5c:	48 89 75 f0          	mov    %rsi,-0x10(%rbp)
    6a60:	48 8b 45 f0          	mov    -0x10(%rbp),%rax
    6a64:	5d                   	pop    %rbp
    6a65:	c3                   	ret

0000000000006a66 <_ZdlPvS_>:
_GLIBCXX_NODISCARD inline void* operator new[](std::size_t, void* __p) _GLIBCXX_USE_NOEXCEPT
{ return __p; }

// Default placement versions of operator delete.
inline void operator delete  (void*, void*) _GLIBCXX_USE_NOEXCEPT { }
    6a66:	f3 0f 1e fa          	endbr64
    6a6a:	55                   	push   %rbp
    6a6b:	48 89 e5             	mov    %rsp,%rbp
    6a6e:	48 89 7d f8          	mov    %rdi,-0x8(%rbp)
    6a72:	48 89 75 f0          	mov    %rsi,-0x10(%rbp)
    6a76:	90                   	nop
    6a77:	5d                   	pop    %rbp
    6a78:	c3                   	ret

0000000000006a79 <_ZSt21is_constant_evaluatedv>:

  /// Returns true only when called during constant evaluation.
  /// @since C++20
  constexpr inline bool
  is_constant_evaluated() noexcept
  {
    6a79:	f3 0f 1e fa          	endbr64
    6a7d:	55                   	push   %rbp
    6a7e:	48 89 e5             	mov    %rsp,%rbp
#if __cpp_if_consteval >= 202106L
    if consteval { return true; } else { return false; }
    6a81:	b8 00 00 00 00       	mov    $0x0,%eax
#else
    return __builtin_is_constant_evaluated();
#endif
  }
    6a86:	5d                   	pop    %rbp
    6a87:	c3                   	ret

0000000000006a88 <_ZNSt9__cmp_cat8__unspecC1EPS0_>:

    enum class _Ncmp : type { _Unordered = 2 };

    struct __unspec
    {
      constexpr __unspec(__unspec*) noexcept { }
    6a88:	f3 0f 1e fa          	endbr64
    6a8c:	55                   	push   %rbp
    6a8d:	48 89 e5             	mov    %rsp,%rbp
    6a90:	48 89 7d f8          	mov    %rdi,-0x8(%rbp)
    6a94:	48 89 75 f0          	mov    %rsi,-0x10(%rbp)
    6a98:	90                   	nop
    6a99:	5d                   	pop    %rbp
    6a9a:	c3                   	ret

0000000000006a9b <_ZStltSt15strong_orderingNSt9__cmp_cat8__unspecE>:
    friend constexpr bool
    operator==(strong_ordering, strong_ordering) noexcept = default;

    [[nodiscard]]
    friend constexpr bool
    operator< (strong_ordering __v, __cmp_cat::__unspec) noexcept
    6a9b:	f3 0f 1e fa          	endbr64
    6a9f:	55                   	push   %rbp
    6aa0:	48 89 e5             	mov    %rsp,%rbp
    6aa3:	40 88 7d ff          	mov    %dil,-0x1(%rbp)
    { return __v._M_value < 0; }
    6aa7:	0f b6 45 ff          	movzbl -0x1(%rbp),%eax
    6aab:	c0 e8 07             	shr    $0x7,%al
    6aae:	5d                   	pop    %rbp
    6aaf:	c3                   	ret

0000000000006ab0 <_ZNKSt9type_info4nameEv>:
     *  the runtime-mandated type_info structures in the new-abi.  */
    virtual ~type_info();

    /** Returns an @e implementation-defined byte string; this is not
     *  portable between compilers!  */
    const char* name() const _GLIBCXX_NOEXCEPT
    6ab0:	f3 0f 1e fa          	endbr64
    6ab4:	55                   	push   %rbp
    6ab5:	48 89 e5             	mov    %rsp,%rbp
    6ab8:	48 89 7d f8          	mov    %rdi,-0x8(%rbp)
    { return __name[0] == '*' ? __name + 1 : __name; }
    6abc:	48 8b 45 f8          	mov    -0x8(%rbp),%rax
    6ac0:	48 8b 40 08          	mov    0x8(%rax),%rax
    6ac4:	0f b6 00             	movzbl (%rax),%eax
    6ac7:	3c 2a                	cmp    $0x2a,%al
    6ac9:	75 0e                	jne    6ad9 <_ZNKSt9type_info4nameEv+0x29>
    6acb:	48 8b 45 f8          	mov    -0x8(%rbp),%rax
    6acf:	48 8b 40 08          	mov    0x8(%rax),%rax
    6ad3:	48 83 c0 01          	add    $0x1,%rax
    6ad7:	eb 08                	jmp    6ae1 <_ZNKSt9type_info4nameEv+0x31>
    6ad9:	48 8b 45 f8          	mov    -0x8(%rbp),%rax
    6add:	48 8b 40 08          	mov    0x8(%rax),%rax
    6ae1:	5d                   	pop    %rbp
    6ae2:	c3                   	ret
    6ae3:	90                   	nop

0000000000006ae4 <_ZNKSt9type_infoeqERKS_>:
#endif

#if __GXX_TYPEINFO_EQUALITY_INLINE || __cplusplus > 202002L
  _GLIBCXX23_CONSTEXPR inline bool
  type_info::operator==(const type_info& __arg) const _GLIBCXX_NOEXCEPT
  {
    6ae4:	f3 0f 1e fa          	endbr64
    6ae8:	55                   	push   %rbp
    6ae9:	48 89 e5             	mov    %rsp,%rbp
    6aec:	48 83 ec 10          	sub    $0x10,%rsp
    6af0:	48 89 7d f8          	mov    %rdi,-0x8(%rbp)
    6af4:	48 89 75 f0          	mov    %rsi,-0x10(%rbp)
    if (std::__is_constant_evaluated())
    6af8:	e8 44 ff ff ff       	call   6a41 <_ZSt23__is_constant_evaluatedv>
    6afd:	84 c0                	test   %al,%al
    6aff:	74 0d                	je     6b0e <_ZNKSt9type_infoeqERKS_+0x2a>
      return this == &__arg;
    6b01:	48 8b 45 f8          	mov    -0x8(%rbp),%rax
    6b05:	48 3b 45 f0          	cmp    -0x10(%rbp),%rax
    6b09:	0f 94 c0             	sete   %al
    6b0c:	eb 5e                	jmp    6b6c <_ZNKSt9type_infoeqERKS_+0x88>

    if (__name == __arg.__name)
    6b0e:	48 8b 45 f8          	mov    -0x8(%rbp),%rax
    6b12:	48 8b 50 08          	mov    0x8(%rax),%rdx
    6b16:	48 8b 45 f0          	mov    -0x10(%rbp),%rax
    6b1a:	48 8b 40 08          	mov    0x8(%rax),%rax
    6b1e:	48 39 c2             	cmp    %rax,%rdx
    6b21:	75 07                	jne    6b2a <_ZNKSt9type_infoeqERKS_+0x46>
      return true;
    6b23:	b8 01 00 00 00       	mov    $0x1,%eax
    6b28:	eb 42                	jmp    6b6c <_ZNKSt9type_infoeqERKS_+0x88>
#if !__GXX_TYPEINFO_EQUALITY_INLINE
    // ABI requires comparisons to be non-inline.
    return __equal(__arg);
#elif !__GXX_MERGED_TYPEINFO_NAMES
    // Need to do string comparison.
    return __name[0] != '*' && __builtin_strcmp (__name, __arg.name()) == 0;
    6b2a:	48 8b 45 f8          	mov    -0x8(%rbp),%rax
    6b2e:	48 8b 40 08          	mov    0x8(%rax),%rax
    6b32:	0f b6 00             	movzbl (%rax),%eax
    6b35:	3c 2a                	cmp    $0x2a,%al
    6b37:	74 2d                	je     6b66 <_ZNKSt9type_infoeqERKS_+0x82>
    6b39:	48 8b 45 f0          	mov    -0x10(%rbp),%rax
    6b3d:	48 89 c7             	mov    %rax,%rdi
    6b40:	e8 6b ff ff ff       	call   6ab0 <_ZNKSt9type_info4nameEv>
    6b45:	48 89 c2             	mov    %rax,%rdx
    6b48:	48 8b 45 f8          	mov    -0x8(%rbp),%rax
    6b4c:	48 8b 40 08          	mov    0x8(%rax),%rax
    6b50:	48 89 d6             	mov    %rdx,%rsi
    6b53:	48 89 c7             	mov    %rax,%rdi
    6b56:	e8 95 ee ff ff       	call   59f0 <strcmp@plt>
    6b5b:	85 c0                	test   %eax,%eax
    6b5d:	75 07                	jne    6b66 <_ZNKSt9type_infoeqERKS_+0x82>
    6b5f:	b8 01 00 00 00       	mov    $0x1,%eax
    6b64:	eb 05                	jmp    6b6b <_ZNKSt9type_infoeqERKS_+0x87>
    6b66:	b8 00 00 00 00       	mov    $0x0,%eax
    6b6b:	90                   	nop
#else
    return false;
#endif
  }
    6b6c:	c9                   	leave
    6b6d:	c3                   	ret

0000000000006b6e <_ZNSt16_Sp_counted_baseILN9__gnu_cxx12_Lock_policyE2EE10_M_releaseEv>:
    {
    6b6e:	f3 0f 1e fa          	endbr64
    6b72:	55                   	push   %rbp
    6b73:	48 89 e5             	mov    %rsp,%rbp
    6b76:	48 83 ec 60          	sub    $0x60,%rsp
    6b7a:	48 89 7d a8          	mov    %rdi,-0x58(%rbp)
      constexpr bool __lock_free
    6b7e:	c6 45 bd 01          	movb   $0x1,-0x43(%rbp)
      constexpr bool __double_word
    6b82:	c6 45 be 01          	movb   $0x1,-0x42(%rbp)
      constexpr bool __aligned = __alignof(long long) <= alignof(void*);
    6b86:	c6 45 bf 01          	movb   $0x1,-0x41(%rbp)
	  constexpr int __wordbits = __CHAR_BIT__ * sizeof(_Atomic_word);
    6b8a:	c7 45 c0 20 00 00 00 	movl   $0x20,-0x40(%rbp)
	  constexpr int __shiftbits = __double_word ? __wordbits : 0;
    6b91:	c7 45 c4 20 00 00 00 	movl   $0x20,-0x3c(%rbp)
	  constexpr long long __unique_ref = 1LL + (1LL << __shiftbits);
    6b98:	48 b8 01 00 00 00 01 	movabs $0x100000001,%rax
    6b9f:	00 00 00 
    6ba2:	48 89 45 d8          	mov    %rax,-0x28(%rbp)
	  auto __both_counts = reinterpret_cast<long long*>(&_M_use_count);
    6ba6:	48 8b 45 a8          	mov    -0x58(%rbp),%rax
    6baa:	48 83 c0 08          	add    $0x8,%rax
    6bae:	48 89 45 e0          	mov    %rax,-0x20(%rbp)
	  if (__atomic_load_n(__both_counts, __ATOMIC_ACQUIRE) == __unique_ref)
    6bb2:	48 8b 45 e0          	mov    -0x20(%rbp),%rax
    6bb6:	48 8b 10             	mov    (%rax),%rdx
    6bb9:	48 b8 01 00 00 00 01 	movabs $0x100000001,%rax
    6bc0:	00 00 00 
    6bc3:	48 39 c2             	cmp    %rax,%rdx
    6bc6:	0f 94 c0             	sete   %al
    6bc9:	84 c0                	test   %al,%al
    6bcb:	74 4c                	je     6c19 <_ZNSt16_Sp_counted_baseILN9__gnu_cxx12_Lock_policyE2EE10_M_releaseEv+0xab>
	      _M_weak_count = _M_use_count = 0;
    6bcd:	48 8b 45 a8          	mov    -0x58(%rbp),%rax
    6bd1:	c7 40 08 00 00 00 00 	movl   $0x0,0x8(%rax)
    6bd8:	48 8b 45 a8          	mov    -0x58(%rbp),%rax
    6bdc:	8b 50 08             	mov    0x8(%rax),%edx
    6bdf:	48 8b 45 a8          	mov    -0x58(%rbp),%rax
    6be3:	89 50 0c             	mov    %edx,0xc(%rax)
	      _M_dispose();
    6be6:	48 8b 45 a8          	mov    -0x58(%rbp),%rax
    6bea:	48 8b 00             	mov    (%rax),%rax
    6bed:	48 83 c0 10          	add    $0x10,%rax
    6bf1:	48 8b 10             	mov    (%rax),%rdx
    6bf4:	48 8b 45 a8          	mov    -0x58(%rbp),%rax
    6bf8:	48 89 c7             	mov    %rax,%rdi
    6bfb:	ff d2                	call   *%rdx
	      _M_destroy();
    6bfd:	48 8b 45 a8          	mov    -0x58(%rbp),%rax
    6c01:	48 8b 00             	mov    (%rax),%rax
    6c04:	48 83 c0 18          	add    $0x18,%rax
    6c08:	48 8b 10             	mov    (%rax),%rdx
    6c0b:	48 8b 45 a8          	mov    -0x58(%rbp),%rax
    6c0f:	48 89 c7             	mov    %rax,%rdi
    6c12:	ff d2                	call   *%rdx
	      return;
    6c14:	e9 83 00 00 00       	jmp    6c9c <_ZNSt16_Sp_counted_baseILN9__gnu_cxx12_Lock_policyE2EE10_M_releaseEv+0x12e>
	  if (__gnu_cxx::__exchange_and_add_dispatch(&_M_use_count, -1) == 1)
    6c19:	48 8b 45 a8          	mov    -0x58(%rbp),%rax
    6c1d:	48 83 c0 08          	add    $0x8,%rax
    6c21:	48 89 45 e8          	mov    %rax,-0x18(%rbp)
    6c25:	c7 45 c8 ff ff ff ff 	movl   $0xffffffff,-0x38(%rbp)
  __is_single_threaded() _GLIBCXX_NOTHROW
  {
#ifndef __GTHREADS
    return true;
#elif __has_include(<sys/single_threaded.h>)
    return ::__libc_single_threaded;
    6c2c:	0f b6 05 0d f5 02 00 	movzbl 0x2f50d(%rip),%eax        # 36140 <__libc_single_threaded@GLIBC_2.32>
    6c33:	84 c0                	test   %al,%al
    6c35:	0f 95 c0             	setne  %al

  inline _Atomic_word
  __attribute__ ((__always_inline__))
  __exchange_and_add_dispatch(_Atomic_word* __mem, int __val)
  {
    if (__is_single_threaded())
    6c38:	84 c0                	test   %al,%al
    6c3a:	74 2d                	je     6c69 <_ZNSt16_Sp_counted_baseILN9__gnu_cxx12_Lock_policyE2EE10_M_releaseEv+0xfb>
    6c3c:	48 8b 45 e8          	mov    -0x18(%rbp),%rax
    6c40:	48 89 45 f0          	mov    %rax,-0x10(%rbp)
    6c44:	8b 45 c8             	mov    -0x38(%rbp),%eax
    6c47:	89 45 cc             	mov    %eax,-0x34(%rbp)
    _Atomic_word __result = *__mem;
    6c4a:	48 8b 45 f0          	mov    -0x10(%rbp),%rax
    6c4e:	8b 00                	mov    (%rax),%eax
    6c50:	89 45 d0             	mov    %eax,-0x30(%rbp)
    *__mem += __val;
    6c53:	48 8b 45 f0          	mov    -0x10(%rbp),%rax
    6c57:	8b 10                	mov    (%rax),%edx
    6c59:	8b 45 cc             	mov    -0x34(%rbp),%eax
    6c5c:	01 c2                	add    %eax,%edx
    6c5e:	48 8b 45 f0          	mov    -0x10(%rbp),%rax
    6c62:	89 10                	mov    %edx,(%rax)
    return __result;
    6c64:	8b 45 d0             	mov    -0x30(%rbp),%eax
      return __exchange_and_add_single(__mem, __val);
    6c67:	eb 1c                	jmp    6c85 <_ZNSt16_Sp_counted_baseILN9__gnu_cxx12_Lock_policyE2EE10_M_releaseEv+0x117>
    6c69:	48 8b 45 e8          	mov    -0x18(%rbp),%rax
    6c6d:	48 89 45 f8          	mov    %rax,-0x8(%rbp)
    6c71:	8b 45 c8             	mov    -0x38(%rbp),%eax
    6c74:	89 45 d4             	mov    %eax,-0x2c(%rbp)
  { return __atomic_fetch_add(__mem, __val, __ATOMIC_ACQ_REL); }
    6c77:	8b 55 d4             	mov    -0x2c(%rbp),%edx
    6c7a:	48 8b 45 f8          	mov    -0x8(%rbp),%rax
    6c7e:	f0 0f c1 10          	lock xadd %edx,(%rax)
    6c82:	89 d0                	mov    %edx,%eax
    else
      return __exchange_and_add(__mem, __val);
    6c84:	90                   	nop
    6c85:	83 f8 01             	cmp    $0x1,%eax
    6c88:	0f 94 c0             	sete   %al
    6c8b:	84 c0                	test   %al,%al
    6c8d:	74 0d                	je     6c9c <_ZNSt16_Sp_counted_baseILN9__gnu_cxx12_Lock_policyE2EE10_M_releaseEv+0x12e>
	      _M_release_last_use_cold();
    6c8f:	48 8b 45 a8          	mov    -0x58(%rbp),%rax
    6c93:	48 89 c7             	mov    %rax,%rdi
    6c96:	e8 33 04 00 00       	call   70ce <_ZNSt16_Sp_counted_baseILN9__gnu_cxx12_Lock_policyE2EE24_M_release_last_use_coldEv>
	      return;
    6c9b:	90                   	nop
    }
    6c9c:	c9                   	leave
    6c9d:	c3                   	ret

0000000000006c9e <_ZNSt19_Sp_make_shared_tag5_S_tiEv>:
    _S_ti() noexcept _GLIBCXX_VISIBILITY(default)
    6c9e:	f3 0f 1e fa          	endbr64
    6ca2:	55                   	push   %rbp
    6ca3:	48 89 e5             	mov    %rsp,%rbp
      return reinterpret_cast<const type_info&>(__tag);
    6ca6:	48 8d 05 5b f3 01 00 	lea    0x1f35b(%rip),%rax        # 26008 <_ZZNSt19_Sp_make_shared_tag5_S_tiEvE5__tag>
    }
    6cad:	5d                   	pop    %rbp
    6cae:	c3                   	ret
    6caf:	90                   	nop

0000000000006cb0 <_ZNSt15_Rb_tree_headerC1Ev>:
  struct _Rb_tree_header
  {
    _Rb_tree_node_base	_M_header;
    size_t		_M_node_count; // Keeps track of size of tree.

    _Rb_tree_header() _GLIBCXX_NOEXCEPT
    6cb0:	f3 0f 1e fa          	endbr64
    6cb4:	55                   	push   %rbp
    6cb5:	48 89 e5             	mov    %rsp,%rbp
    6cb8:	48 83 ec 10          	sub    $0x10,%rsp
    6cbc:	48 89 7d f8          	mov    %rdi,-0x8(%rbp)
    {
      _M_header._M_color = _S_red;
    6cc0:	48 8b 45 f8          	mov    -0x8(%rbp),%rax
    6cc4:	c7 00 00 00 00 00    	movl   $0x0,(%rax)
      _M_reset();
    6cca:	48 8b 45 f8          	mov    -0x8(%rbp),%rax
    6cce:	48 89 c7             	mov    %rax,%rdi
    6cd1:	e8 04 00 00 00       	call   6cda <_ZNSt15_Rb_tree_header8_M_resetEv>
    }
    6cd6:	90                   	nop
    6cd7:	c9                   	leave
    6cd8:	c3                   	ret
    6cd9:	90                   	nop

0000000000006cda <_ZNSt15_Rb_tree_header8_M_resetEv>:

      __from._M_reset();
    }

    void
    _M_reset()
    6cda:	f3 0f 1e fa          	endbr64
    6cde:	55                   	push   %rbp
    6cdf:	48 89 e5             	mov    %rsp,%rbp
    6ce2:	48 89 7d f8          	mov    %rdi,-0x8(%rbp)
    {
      _M_header._M_parent = 0;
    6ce6:	48 8b 45 f8          	mov    -0x8(%rbp),%rax
    6cea:	48 c7 40 08 00 00 00 	movq   $0x0,0x8(%rax)
    6cf1:	00 
      _M_header._M_left = &_M_header;
    6cf2:	48 8b 55 f8          	mov    -0x8(%rbp),%rdx
    6cf6:	48 8b 45 f8          	mov    -0x8(%rbp),%rax
    6cfa:	48 89 50 10          	mov    %rdx,0x10(%rax)
      _M_header._M_right = &_M_header;
    6cfe:	48 8b 55 f8          	mov    -0x8(%rbp),%rdx
    6d02:	48 8b 45 f8          	mov    -0x8(%rbp),%rax
    6d06:	48 89 50 18          	mov    %rdx,0x18(%rax)
      _M_node_count = 0;
    6d0a:	48 8b 45 f8          	mov    -0x8(%rbp),%rax
    6d0e:	48 c7 40 20 00 00 00 	movq   $0x0,0x20(%rax)
    6d15:	00 
    }
    6d16:	90                   	nop
    6d17:	5d                   	pop    %rbp
    6d18:	c3                   	ret

0000000000006d19 <_ZN9__gnu_cxxeqIPSt10shared_ptrI6node_tESt6vectorIS3_SaIS3_EEEEbRKNS_17__normal_iteratorIT_T0_EESD_>:
    { return std::__detail::__synth3way(__lhs.base(), __rhs.base()); }

  template<typename _Iterator, typename _Container>
    [[nodiscard]]
    constexpr bool
    operator==(const __normal_iterator<_Iterator, _Container>& __lhs,
    6d19:	f3 0f 1e fa          	endbr64
    6d1d:	55                   	push   %rbp
    6d1e:	48 89 e5             	mov    %rsp,%rbp
    6d21:	53                   	push   %rbx
    6d22:	48 83 ec 18          	sub    $0x18,%rsp
    6d26:	48 89 7d e8          	mov    %rdi,-0x18(%rbp)
    6d2a:	48 89 75 e0          	mov    %rsi,-0x20(%rbp)
	       const __normal_iterator<_Iterator, _Container>& __rhs)
    noexcept(noexcept(__lhs.base() == __rhs.base()))
    requires requires {
      { __lhs.base() == __rhs.base() } -> std::convertible_to<bool>;
    }
    { return __lhs.base() == __rhs.base(); }
    6d2e:	48 8b 45 e8          	mov    -0x18(%rbp),%rax
    6d32:	48 89 c7             	mov    %rax,%rdi
    6d35:	e8 1e 00 00 00       	call   6d58 <_ZNK9__gnu_cxx17__normal_iteratorIPSt10shared_ptrI6node_tESt6vectorIS3_SaIS3_EEE4baseEv>
    6d3a:	48 8b 18             	mov    (%rax),%rbx
    6d3d:	48 8b 45 e0          	mov    -0x20(%rbp),%rax
    6d41:	48 89 c7             	mov    %rax,%rdi
    6d44:	e8 0f 00 00 00       	call   6d58 <_ZNK9__gnu_cxx17__normal_iteratorIPSt10shared_ptrI6node_tESt6vectorIS3_SaIS3_EEE4baseEv>
    6d49:	48 8b 00             	mov    (%rax),%rax
    6d4c:	48 39 c3             	cmp    %rax,%rbx
    6d4f:	0f 94 c0             	sete   %al
    6d52:	48 8b 5d f8          	mov    -0x8(%rbp),%rbx
    6d56:	c9                   	leave
    6d57:	c3                   	ret

0000000000006d58 <_ZNK9__gnu_cxx17__normal_iteratorIPSt10shared_ptrI6node_tESt6vectorIS3_SaIS3_EEE4baseEv>:
      base() const _GLIBCXX_NOEXCEPT
    6d58:	f3 0f 1e fa          	endbr64
    6d5c:	55                   	push   %rbp
    6d5d:	48 89 e5             	mov    %rsp,%rbp
    6d60:	48 89 7d f8          	mov    %rdi,-0x8(%rbp)
      { return _M_current; }
    6d64:	48 8b 45 f8          	mov    -0x8(%rbp),%rax
    6d68:	5d                   	pop    %rbp
    6d69:	c3                   	ret

0000000000006d6a <_ZNK9__gnu_cxx17__normal_iteratorIPSt10shared_ptrI6node_tESt6vectorIS3_SaIS3_EEEdeEv>:
      operator*() const _GLIBCXX_NOEXCEPT
    6d6a:	f3 0f 1e fa          	endbr64
    6d6e:	55                   	push   %rbp
    6d6f:	48 89 e5             	mov    %rsp,%rbp
    6d72:	48 89 7d f8          	mov    %rdi,-0x8(%rbp)
      { return *_M_current; }
    6d76:	48 8b 45 f8          	mov    -0x8(%rbp),%rax
    6d7a:	48 8b 00             	mov    (%rax),%rax
    6d7d:	5d                   	pop    %rbp
    6d7e:	c3                   	ret
    6d7f:	90                   	nop

0000000000006d80 <_ZNSt8_Rb_treeISt10shared_ptrI6node_tESt4pairIKS2_iESt10_Select1stIS5_ESt4lessIS2_ESaIS5_EE13_Rb_tree_implIS9_Lb1EED1Ev>:
#else
      // Unused _Is_pod_comparator is kept as it is part of mangled name.
      template<typename _Key_compare,
	       bool /* _Is_pod_comparator */ = __is_pod(_Key_compare)>
#endif
	struct _Rb_tree_impl
    6d80:	f3 0f 1e fa          	endbr64
    6d84:	55                   	push   %rbp
    6d85:	48 89 e5             	mov    %rsp,%rbp
    6d88:	48 83 ec 10          	sub    $0x10,%rsp
    6d8c:	48 89 7d f8          	mov    %rdi,-0x8(%rbp)
    6d90:	48 8b 45 f8          	mov    -0x8(%rbp),%rax
    6d94:	48 89 c7             	mov    %rax,%rdi
    6d97:	e8 0c 07 00 00       	call   74a8 <_ZNSaISt13_Rb_tree_nodeISt4pairIKSt10shared_ptrI6node_tEiEEED1Ev>
    6d9c:	90                   	nop
    6d9d:	c9                   	leave
    6d9e:	c3                   	ret
    6d9f:	90                   	nop

0000000000006da0 <_ZNSt8_Rb_treeISt10shared_ptrI6node_tESt4pairIKS2_iESt10_Select1stIS5_ESt4lessIS2_ESaIS5_EEC1Ev>:
    public:
      // allocation/deallocation
#if __cplusplus < 201103L
      _Rb_tree() { }
#else
      _Rb_tree() = default;
    6da0:	f3 0f 1e fa          	endbr64
    6da4:	55                   	push   %rbp
    6da5:	48 89 e5             	mov    %rsp,%rbp
    6da8:	48 83 ec 10          	sub    $0x10,%rsp
    6dac:	48 89 7d f8          	mov    %rdi,-0x8(%rbp)
    6db0:	48 8b 45 f8          	mov    -0x8(%rbp),%rax
    6db4:	48 89 c7             	mov    %rax,%rdi
    6db7:	e8 b0 06 00 00       	call   746c <_ZNSt8_Rb_treeISt10shared_ptrI6node_tESt4pairIKS2_iESt10_Select1stIS5_ESt4lessIS2_ESaIS5_EE13_Rb_tree_implIS9_Lb1EEC1Ev>
    6dbc:	90                   	nop
    6dbd:	c9                   	leave
    6dbe:	c3                   	ret
    6dbf:	90                   	nop

0000000000006dc0 <_ZNSt3mapISt10shared_ptrI6node_tEiSt4lessIS2_ESaISt4pairIKS2_iEEEC1Ev>:
       *  @brief  Default constructor creates no elements.
       */
#if __cplusplus < 201103L
      map() : _M_t() { }
#else
      map() = default;
    6dc0:	f3 0f 1e fa          	endbr64
    6dc4:	55                   	push   %rbp
    6dc5:	48 89 e5             	mov    %rsp,%rbp
    6dc8:	48 83 ec 10          	sub    $0x10,%rsp
    6dcc:	48 89 7d f8          	mov    %rdi,-0x8(%rbp)
    6dd0:	48 8b 45 f8          	mov    -0x8(%rbp),%rax
    6dd4:	48 89 c7             	mov    %rax,%rdi
    6dd7:	e8 c4 ff ff ff       	call   6da0 <_ZNSt8_Rb_treeISt10shared_ptrI6node_tESt4pairIKS2_iESt10_Select1stIS5_ESt4lessIS2_ESaIS5_EEC1Ev>
    6ddc:	90                   	nop
    6ddd:	c9                   	leave
    6dde:	c3                   	ret
    6ddf:	90                   	nop

0000000000006de0 <_ZNSt3mapISt10shared_ptrI6node_tEiSt4lessIS2_ESaISt4pairIKS2_iEEED1Ev>:
      /**
       *  The dtor only erases the elements, and note that if the elements
       *  themselves are pointers, the pointed-to memory is not touched in any
       *  way.  Managing the pointer is the user's responsibility.
       */
      ~map() = default;
    6de0:	f3 0f 1e fa          	endbr64
    6de4:	55                   	push   %rbp
    6de5:	48 89 e5             	mov    %rsp,%rbp
    6de8:	48 83 ec 10          	sub    $0x10,%rsp
    6dec:	48 89 7d f8          	mov    %rdi,-0x8(%rbp)
    6df0:	48 8b 45 f8          	mov    -0x8(%rbp),%rax
    6df4:	48 89 c7             	mov    %rax,%rdi
    6df7:	e8 bc 06 00 00       	call   74b8 <_ZNSt8_Rb_treeISt10shared_ptrI6node_tESt4pairIKS2_iESt10_Select1stIS5_ESt4lessIS2_ESaIS5_EED1Ev>
    6dfc:	90                   	nop
    6dfd:	c9                   	leave
    6dfe:	c3                   	ret

0000000000006dff <_ZN9__gnu_cxxeqIPSt6vectorIiSaIiEES1_IS3_SaIS3_EEEEbRKNS_17__normal_iteratorIT_T0_EESC_>:
    operator==(const __normal_iterator<_Iterator, _Container>& __lhs,
    6dff:	f3 0f 1e fa          	endbr64
    6e03:	55                   	push   %rbp
    6e04:	48 89 e5             	mov    %rsp,%rbp
    6e07:	53                   	push   %rbx
    6e08:	48 83 ec 18          	sub    $0x18,%rsp
    6e0c:	48 89 7d e8          	mov    %rdi,-0x18(%rbp)
    6e10:	48 89 75 e0          	mov    %rsi,-0x20(%rbp)
    { return __lhs.base() == __rhs.base(); }
    6e14:	48 8b 45 e8          	mov    -0x18(%rbp),%rax
    6e18:	48 89 c7             	mov    %rax,%rdi
    6e1b:	e8 1e 00 00 00       	call   6e3e <_ZNK9__gnu_cxx17__normal_iteratorIPSt6vectorIiSaIiEES1_IS3_SaIS3_EEE4baseEv>
    6e20:	48 8b 18             	mov    (%rax),%rbx
    6e23:	48 8b 45 e0          	mov    -0x20(%rbp),%rax
    6e27:	48 89 c7             	mov    %rax,%rdi
    6e2a:	e8 0f 00 00 00       	call   6e3e <_ZNK9__gnu_cxx17__normal_iteratorIPSt6vectorIiSaIiEES1_IS3_SaIS3_EEE4baseEv>
    6e2f:	48 8b 00             	mov    (%rax),%rax
    6e32:	48 39 c3             	cmp    %rax,%rbx
    6e35:	0f 94 c0             	sete   %al
    6e38:	48 8b 5d f8          	mov    -0x8(%rbp),%rbx
    6e3c:	c9                   	leave
    6e3d:	c3                   	ret

0000000000006e3e <_ZNK9__gnu_cxx17__normal_iteratorIPSt6vectorIiSaIiEES1_IS3_SaIS3_EEE4baseEv>:
      base() const _GLIBCXX_NOEXCEPT
    6e3e:	f3 0f 1e fa          	endbr64
    6e42:	55                   	push   %rbp
    6e43:	48 89 e5             	mov    %rsp,%rbp
    6e46:	48 89 7d f8          	mov    %rdi,-0x8(%rbp)
      { return _M_current; }
    6e4a:	48 8b 45 f8          	mov    -0x8(%rbp),%rax
    6e4e:	5d                   	pop    %rbp
    6e4f:	c3                   	ret

0000000000006e50 <_ZNK9__gnu_cxx17__normal_iteratorIPSt6vectorIiSaIiEES1_IS3_SaIS3_EEEdeEv>:
      operator*() const _GLIBCXX_NOEXCEPT
    6e50:	f3 0f 1e fa          	endbr64
    6e54:	55                   	push   %rbp
    6e55:	48 89 e5             	mov    %rsp,%rbp
    6e58:	48 89 7d f8          	mov    %rdi,-0x8(%rbp)
      { return *_M_current; }
    6e5c:	48 8b 45 f8          	mov    -0x8(%rbp),%rax
    6e60:	48 8b 00             	mov    (%rax),%rax
    6e63:	5d                   	pop    %rbp
    6e64:	c3                   	ret

0000000000006e65 <_ZN9__gnu_cxxeqIPKiSt6vectorIiSaIiEEEEbRKNS_17__normal_iteratorIT_T0_EESB_>:
    operator==(const __normal_iterator<_Iterator, _Container>& __lhs,
    6e65:	f3 0f 1e fa          	endbr64
    6e69:	55                   	push   %rbp
    6e6a:	48 89 e5             	mov    %rsp,%rbp
    6e6d:	53                   	push   %rbx
    6e6e:	48 83 ec 18          	sub    $0x18,%rsp
    6e72:	48 89 7d e8          	mov    %rdi,-0x18(%rbp)
    6e76:	48 89 75 e0          	mov    %rsi,-0x20(%rbp)
    { return __lhs.base() == __rhs.base(); }
    6e7a:	48 8b 45 e8          	mov    -0x18(%rbp),%rax
    6e7e:	48 89 c7             	mov    %rax,%rdi
    6e81:	e8 1e 00 00 00       	call   6ea4 <_ZNK9__gnu_cxx17__normal_iteratorIPKiSt6vectorIiSaIiEEE4baseEv>
    6e86:	48 8b 18             	mov    (%rax),%rbx
    6e89:	48 8b 45 e0          	mov    -0x20(%rbp),%rax
    6e8d:	48 89 c7             	mov    %rax,%rdi
    6e90:	e8 0f 00 00 00       	call   6ea4 <_ZNK9__gnu_cxx17__normal_iteratorIPKiSt6vectorIiSaIiEEE4baseEv>
    6e95:	48 8b 00             	mov    (%rax),%rax
    6e98:	48 39 c3             	cmp    %rax,%rbx
    6e9b:	0f 94 c0             	sete   %al
    6e9e:	48 8b 5d f8          	mov    -0x8(%rbp),%rbx
    6ea2:	c9                   	leave
    6ea3:	c3                   	ret

0000000000006ea4 <_ZNK9__gnu_cxx17__normal_iteratorIPKiSt6vectorIiSaIiEEE4baseEv>:
      base() const _GLIBCXX_NOEXCEPT
    6ea4:	f3 0f 1e fa          	endbr64
    6ea8:	55                   	push   %rbp
    6ea9:	48 89 e5             	mov    %rsp,%rbp
    6eac:	48 89 7d f8          	mov    %rdi,-0x8(%rbp)
      { return _M_current; }
    6eb0:	48 8b 45 f8          	mov    -0x8(%rbp),%rax
    6eb4:	5d                   	pop    %rbp
    6eb5:	c3                   	ret

0000000000006eb6 <_ZNK9__gnu_cxx17__normal_iteratorIPKiSt6vectorIiSaIiEEEdeEv>:
      operator*() const _GLIBCXX_NOEXCEPT
    6eb6:	f3 0f 1e fa          	endbr64
    6eba:	55                   	push   %rbp
    6ebb:	48 89 e5             	mov    %rsp,%rbp
    6ebe:	48 89 7d f8          	mov    %rdi,-0x8(%rbp)
      { return *_M_current; }
    6ec2:	48 8b 45 f8          	mov    -0x8(%rbp),%rax
    6ec6:	48 8b 00             	mov    (%rax),%rax
    6ec9:	5d                   	pop    %rbp
    6eca:	c3                   	ret
    6ecb:	90                   	nop

0000000000006ecc <_ZNSt12__shared_ptrI7model_tLN9__gnu_cxx12_Lock_policyE2EED1Ev>:
      ~__shared_ptr() = default;
    6ecc:	f3 0f 1e fa          	endbr64
    6ed0:	55                   	push   %rbp
    6ed1:	48 89 e5             	mov    %rsp,%rbp
    6ed4:	48 83 ec 10          	sub    $0x10,%rsp
    6ed8:	48 89 7d f8          	mov    %rdi,-0x8(%rbp)
    6edc:	48 8b 45 f8          	mov    -0x8(%rbp),%rax
    6ee0:	48 83 c0 08          	add    $0x8,%rax
    6ee4:	48 89 c7             	mov    %rax,%rdi
    6ee7:	e8 22 09 00 00       	call   780e <_ZNSt14__shared_countILN9__gnu_cxx12_Lock_policyE2EED1Ev>
    6eec:	90                   	nop
    6eed:	c9                   	leave
    6eee:	c3                   	ret
    6eef:	90                   	nop

0000000000006ef0 <_ZNSt10shared_ptrI7model_tED1Ev>:
   * the stored pointer returned by `get()`, not the owned pointer.
   * To test whether two `shared_ptr` objects share ownership of the same
   * pointer see `std::shared_ptr::owner_before` and `std::owner_less`.
  */
  template<typename _Tp>
    class shared_ptr : public __shared_ptr<_Tp>
    6ef0:	f3 0f 1e fa          	endbr64
    6ef4:	55                   	push   %rbp
    6ef5:	48 89 e5             	mov    %rsp,%rbp
    6ef8:	48 83 ec 10          	sub    $0x10,%rsp
    6efc:	48 89 7d f8          	mov    %rdi,-0x8(%rbp)
    6f00:	48 8b 45 f8          	mov    -0x8(%rbp),%rax
    6f04:	48 89 c7             	mov    %rax,%rdi
    6f07:	e8 c0 ff ff ff       	call   6ecc <_ZNSt12__shared_ptrI7model_tLN9__gnu_cxx12_Lock_policyE2EED1Ev>
    6f0c:	90                   	nop
    6f0d:	c9                   	leave
    6f0e:	c3                   	ret
    6f0f:	90                   	nop

0000000000006f10 <_ZNSt10__weak_ptrI6node_tLN9__gnu_cxx12_Lock_policyE2EED1Ev>:
      : _M_ptr(nullptr), _M_refcount()
      { }

      __weak_ptr(const __weak_ptr&) noexcept = default;

      ~__weak_ptr() = default;
    6f10:	f3 0f 1e fa          	endbr64
    6f14:	55                   	push   %rbp
    6f15:	48 89 e5             	mov    %rsp,%rbp
    6f18:	48 83 ec 10          	sub    $0x10,%rsp
    6f1c:	48 89 7d f8          	mov    %rdi,-0x8(%rbp)
    6f20:	48 8b 45 f8          	mov    -0x8(%rbp),%rax
    6f24:	48 83 c0 08          	add    $0x8,%rax
    6f28:	48 89 c7             	mov    %rax,%rdi
    6f2b:	e8 54 0a 00 00       	call   7984 <_ZNSt12__weak_countILN9__gnu_cxx12_Lock_policyE2EED1Ev>
    6f30:	90                   	nop
    6f31:	c9                   	leave
    6f32:	c3                   	ret
    6f33:	90                   	nop

0000000000006f34 <_ZNSt8weak_ptrI6node_tEC1Ev>:
	using _Assignable = typename enable_if<
	  is_assignable<__weak_ptr<_Tp>&, _Arg>::value, weak_ptr&
	>::type;

    public:
      constexpr weak_ptr() noexcept = default;
    6f34:	f3 0f 1e fa          	endbr64
    6f38:	55                   	push   %rbp
    6f39:	48 89 e5             	mov    %rsp,%rbp
    6f3c:	48 83 ec 10          	sub    $0x10,%rsp
    6f40:	48 89 7d f8          	mov    %rdi,-0x8(%rbp)
    6f44:	48 8b 45 f8          	mov    -0x8(%rbp),%rax
    6f48:	48 89 c7             	mov    %rax,%rdi
    6f4b:	e8 06 0a 00 00       	call   7956 <_ZNSt10__weak_ptrI6node_tLN9__gnu_cxx12_Lock_policyE2EEC1Ev>
    6f50:	90                   	nop
    6f51:	c9                   	leave
    6f52:	c3                   	ret
    6f53:	90                   	nop

0000000000006f54 <_ZNSt8weak_ptrI6node_tED1Ev>:
    class weak_ptr : public __weak_ptr<_Tp>
    6f54:	f3 0f 1e fa          	endbr64
    6f58:	55                   	push   %rbp
    6f59:	48 89 e5             	mov    %rsp,%rbp
    6f5c:	48 83 ec 10          	sub    $0x10,%rsp
    6f60:	48 89 7d f8          	mov    %rdi,-0x8(%rbp)
    6f64:	48 8b 45 f8          	mov    -0x8(%rbp),%rax
    6f68:	48 89 c7             	mov    %rax,%rdi
    6f6b:	e8 a0 ff ff ff       	call   6f10 <_ZNSt10__weak_ptrI6node_tLN9__gnu_cxx12_Lock_policyE2EED1Ev>
    6f70:	90                   	nop
    6f71:	c9                   	leave
    6f72:	c3                   	ret
    6f73:	90                   	nop

0000000000006f74 <_ZNSt12__shared_ptrI6node_tLN9__gnu_cxx12_Lock_policyE2EED1Ev>:
      ~__shared_ptr() = default;
    6f74:	f3 0f 1e fa          	endbr64
    6f78:	55                   	push   %rbp
    6f79:	48 89 e5             	mov    %rsp,%rbp
    6f7c:	48 83 ec 10          	sub    $0x10,%rsp
    6f80:	48 89 7d f8          	mov    %rdi,-0x8(%rbp)
    6f84:	48 8b 45 f8          	mov    -0x8(%rbp),%rax
    6f88:	48 83 c0 08          	add    $0x8,%rax
    6f8c:	48 89 c7             	mov    %rax,%rdi
    6f8f:	e8 7a 08 00 00       	call   780e <_ZNSt14__shared_countILN9__gnu_cxx12_Lock_policyE2EED1Ev>
    6f94:	90                   	nop
    6f95:	c9                   	leave
    6f96:	c3                   	ret
    6f97:	90                   	nop

0000000000006f98 <_ZNSt10shared_ptrI6node_tED1Ev>:
    class shared_ptr : public __shared_ptr<_Tp>
    6f98:	f3 0f 1e fa          	endbr64
    6f9c:	55                   	push   %rbp
    6f9d:	48 89 e5             	mov    %rsp,%rbp
    6fa0:	48 83 ec 10          	sub    $0x10,%rsp
    6fa4:	48 89 7d f8          	mov    %rdi,-0x8(%rbp)
    6fa8:	48 8b 45 f8          	mov    -0x8(%rbp),%rax
    6fac:	48 89 c7             	mov    %rax,%rdi
    6faf:	e8 c0 ff ff ff       	call   6f74 <_ZNSt12__shared_ptrI6node_tLN9__gnu_cxx12_Lock_policyE2EED1Ev>
    6fb4:	90                   	nop
    6fb5:	c9                   	leave
    6fb6:	c3                   	ret
    6fb7:	90                   	nop

0000000000006fb8 <_ZNSt12__shared_ptrI6node_tLN9__gnu_cxx12_Lock_policyE2EEaSERKS3_>:
      __shared_ptr& operator=(const __shared_ptr&) noexcept = default;
    6fb8:	f3 0f 1e fa          	endbr64
    6fbc:	55                   	push   %rbp
    6fbd:	48 89 e5             	mov    %rsp,%rbp
    6fc0:	48 83 ec 10          	sub    $0x10,%rsp
    6fc4:	48 89 7d f8          	mov    %rdi,-0x8(%rbp)
    6fc8:	48 89 75 f0          	mov    %rsi,-0x10(%rbp)
    6fcc:	48 8b 45 f0          	mov    -0x10(%rbp),%rax
    6fd0:	48 8b 10             	mov    (%rax),%rdx
    6fd3:	48 8b 45 f8          	mov    -0x8(%rbp),%rax
    6fd7:	48 89 10             	mov    %rdx,(%rax)
    6fda:	48 8b 45 f0          	mov    -0x10(%rbp),%rax
    6fde:	48 8d 50 08          	lea    0x8(%rax),%rdx
    6fe2:	48 8b 45 f8          	mov    -0x8(%rbp),%rax
    6fe6:	48 83 c0 08          	add    $0x8,%rax
    6fea:	48 89 d6             	mov    %rdx,%rsi
    6fed:	48 89 c7             	mov    %rax,%rdi
    6ff0:	e8 13 0b 00 00       	call   7b08 <_ZNSt14__shared_countILN9__gnu_cxx12_Lock_policyE2EEaSERKS2_>
    6ff5:	48 8b 45 f8          	mov    -0x8(%rbp),%rax
    6ff9:	c9                   	leave
    6ffa:	c3                   	ret
    6ffb:	90                   	nop

0000000000006ffc <_ZNSt10shared_ptrI6node_tEaSERKS1_>:
      shared_ptr& operator=(const shared_ptr&) noexcept = default;
    6ffc:	f3 0f 1e fa          	endbr64
    7000:	55                   	push   %rbp
    7001:	48 89 e5             	mov    %rsp,%rbp
    7004:	48 83 ec 10          	sub    $0x10,%rsp
    7008:	48 89 7d f8          	mov    %rdi,-0x8(%rbp)
    700c:	48 89 75 f0          	mov    %rsi,-0x10(%rbp)
    7010:	48 8b 45 f8          	mov    -0x8(%rbp),%rax
    7014:	48 8b 55 f0          	mov    -0x10(%rbp),%rdx
    7018:	48 89 d6             	mov    %rdx,%rsi
    701b:	48 89 c7             	mov    %rax,%rdi
    701e:	e8 95 ff ff ff       	call   6fb8 <_ZNSt12__shared_ptrI6node_tLN9__gnu_cxx12_Lock_policyE2EEaSERKS3_>
    7023:	48 8b 45 f8          	mov    -0x8(%rbp),%rax
    7027:	c9                   	leave
    7028:	c3                   	ret
    7029:	90                   	nop

000000000000702a <_ZNSt10__weak_ptrI6node_tLN9__gnu_cxx12_Lock_policyE2EEaSERKS3_>:
	__weak_ptr(__weak_ptr<_Yp, _Lp>&& __r) noexcept
	: _M_ptr(__r.lock().get()), _M_refcount(std::move(__r._M_refcount))
        { __r._M_ptr = nullptr; }

      __weak_ptr&
      operator=(const __weak_ptr& __r) noexcept = default;
    702a:	f3 0f 1e fa          	endbr64
    702e:	55                   	push   %rbp
    702f:	48 89 e5             	mov    %rsp,%rbp
    7032:	48 83 ec 10          	sub    $0x10,%rsp
    7036:	48 89 7d f8          	mov    %rdi,-0x8(%rbp)
    703a:	48 89 75 f0          	mov    %rsi,-0x10(%rbp)
    703e:	48 8b 45 f0          	mov    -0x10(%rbp),%rax
    7042:	48 8b 10             	mov    (%rax),%rdx
    7045:	48 8b 45 f8          	mov    -0x8(%rbp),%rax
    7049:	48 89 10             	mov    %rdx,(%rax)
    704c:	48 8b 45 f0          	mov    -0x10(%rbp),%rax
    7050:	48 8d 50 08          	lea    0x8(%rax),%rdx
    7054:	48 8b 45 f8          	mov    -0x8(%rbp),%rax
    7058:	48 83 c0 08          	add    $0x8,%rax
    705c:	48 89 d6             	mov    %rdx,%rsi
    705f:	48 89 c7             	mov    %rax,%rdi
    7062:	e8 45 0b 00 00       	call   7bac <_ZNSt12__weak_countILN9__gnu_cxx12_Lock_policyE2EEaSERKS2_>
    7067:	48 8b 45 f8          	mov    -0x8(%rbp),%rax
    706b:	c9                   	leave
    706c:	c3                   	ret
    706d:	90                   	nop

000000000000706e <_ZNSt8weak_ptrI6node_tEaSERKS1_>:
      template<typename _Yp, typename = _Constructible<weak_ptr<_Yp>>>
	weak_ptr(weak_ptr<_Yp>&& __r) noexcept
	: __weak_ptr<_Tp>(std::move(__r)) { }

      weak_ptr&
      operator=(const weak_ptr& __r) noexcept = default;
    706e:	f3 0f 1e fa          	endbr64
    7072:	55                   	push   %rbp
    7073:	48 89 e5             	mov    %rsp,%rbp
    7076:	48 83 ec 10          	sub    $0x10,%rsp
    707a:	48 89 7d f8          	mov    %rdi,-0x8(%rbp)
    707e:	48 89 75 f0          	mov    %rsi,-0x10(%rbp)
    7082:	48 8b 45 f8          	mov    -0x8(%rbp),%rax
    7086:	48 8b 55 f0          	mov    -0x10(%rbp),%rdx
    708a:	48 89 d6             	mov    %rdx,%rsi
    708d:	48 89 c7             	mov    %rax,%rdi
    7090:	e8 95 ff ff ff       	call   702a <_ZNSt10__weak_ptrI6node_tLN9__gnu_cxx12_Lock_policyE2EEaSERKS3_>
    7095:	48 8b 45 f8          	mov    -0x8(%rbp),%rax
    7099:	c9                   	leave
    709a:	c3                   	ret
    709b:	90                   	nop

000000000000709c <_ZNSt16_Sp_counted_baseILN9__gnu_cxx12_Lock_policyE2EE10_M_destroyEv>:
      _M_destroy() noexcept
    709c:	f3 0f 1e fa          	endbr64
    70a0:	55                   	push   %rbp
    70a1:	48 89 e5             	mov    %rsp,%rbp
    70a4:	48 83 ec 10          	sub    $0x10,%rsp
    70a8:	48 89 7d f8          	mov    %rdi,-0x8(%rbp)
      { delete this; }
    70ac:	48 83 7d f8 00       	cmpq   $0x0,-0x8(%rbp)
    70b1:	74 17                	je     70ca <_ZNSt16_Sp_counted_baseILN9__gnu_cxx12_Lock_policyE2EE10_M_destroyEv+0x2e>
    70b3:	48 8b 45 f8          	mov    -0x8(%rbp),%rax
    70b7:	48 8b 00             	mov    (%rax),%rax
    70ba:	48 83 c0 08          	add    $0x8,%rax
    70be:	48 8b 10             	mov    (%rax),%rdx
    70c1:	48 8b 45 f8          	mov    -0x8(%rbp),%rax
    70c5:	48 89 c7             	mov    %rax,%rdi
    70c8:	ff d2                	call   *%rdx
    70ca:	90                   	nop
    70cb:	c9                   	leave
    70cc:	c3                   	ret
    70cd:	90                   	nop

00000000000070ce <_ZNSt16_Sp_counted_baseILN9__gnu_cxx12_Lock_policyE2EE24_M_release_last_use_coldEv>:
      _M_release_last_use_cold() noexcept
    70ce:	f3 0f 1e fa          	endbr64
    70d2:	55                   	push   %rbp
    70d3:	48 89 e5             	mov    %rsp,%rbp
    70d6:	48 83 ec 10          	sub    $0x10,%rsp
    70da:	48 89 7d f8          	mov    %rdi,-0x8(%rbp)
      { _M_release_last_use(); }
    70de:	48 8b 45 f8          	mov    -0x8(%rbp),%rax
    70e2:	48 89 c7             	mov    %rax,%rdi
    70e5:	e8 6e 0b 00 00       	call   7c58 <_ZNSt16_Sp_counted_baseILN9__gnu_cxx12_Lock_policyE2EE19_M_release_last_useEv>
    70ea:	90                   	nop
    70eb:	c9                   	leave
    70ec:	c3                   	ret
    70ed:	90                   	nop

00000000000070ee <_ZNSt3mapISt10shared_ptrI6node_tEiSt4lessIS2_ESaISt4pairIKS2_iEEE4findERS6_>:
       *  pointing to the sought after %pair.  If unsuccessful it returns the
       *  past-the-end ( @c end() ) iterator.
       */

      iterator
      find(const key_type& __x)
    70ee:	f3 0f 1e fa          	endbr64
    70f2:	55                   	push   %rbp
    70f3:	48 89 e5             	mov    %rsp,%rbp
    70f6:	48 83 ec 10          	sub    $0x10,%rsp
    70fa:	48 89 7d f8          	mov    %rdi,-0x8(%rbp)
    70fe:	48 89 75 f0          	mov    %rsi,-0x10(%rbp)
      { return _M_t.find(__x); }
    7102:	48 8b 45 f8          	mov    -0x8(%rbp),%rax
    7106:	48 8b 55 f0          	mov    -0x10(%rbp),%rdx
    710a:	48 89 d6             	mov    %rdx,%rsi
    710d:	48 89 c7             	mov    %rax,%rdi
    7110:	e8 fb 0b 00 00       	call   7d10 <_ZNSt8_Rb_treeISt10shared_ptrI6node_tESt4pairIKS2_iESt10_Select1stIS5_ESt4lessIS2_ESaIS5_EE4findERS4_>
    7115:	c9                   	leave
    7116:	c3                   	ret
    7117:	90                   	nop

0000000000007118 <_ZNSt3mapISt10shared_ptrI6node_tEiSt4lessIS2_ESaISt4pairIKS2_iEEE3endEv>:
      end() _GLIBCXX_NOEXCEPT
    7118:	f3 0f 1e fa          	endbr64
    711c:	55                   	push   %rbp
    711d:	48 89 e5             	mov    %rsp,%rbp
    7120:	48 83 ec 10          	sub    $0x10,%rsp
    7124:	48 89 7d f8          	mov    %rdi,-0x8(%rbp)
      { return _M_t.end(); }
    7128:	48 8b 45 f8          	mov    -0x8(%rbp),%rax
    712c:	48 89 c7             	mov    %rax,%rdi
    712f:	e8 b2 0c 00 00       	call   7de6 <_ZNSt8_Rb_treeISt10shared_ptrI6node_tESt4pairIKS2_iESt10_Select1stIS5_ESt4lessIS2_ESaIS5_EE3endEv>
    7134:	c9                   	leave
    7135:	c3                   	ret

0000000000007136 <_ZSteqRKSt17_Rb_tree_iteratorISt4pairIKSt10shared_ptrI6node_tEiEES8_>:
      operator==(const _Self& __x, const _Self& __y) _GLIBCXX_NOEXCEPT
    7136:	f3 0f 1e fa          	endbr64
    713a:	55                   	push   %rbp
    713b:	48 89 e5             	mov    %rsp,%rbp
    713e:	48 89 7d f8          	mov    %rdi,-0x8(%rbp)
    7142:	48 89 75 f0          	mov    %rsi,-0x10(%rbp)
      { return __x._M_node == __y._M_node; }
    7146:	48 8b 45 f8          	mov    -0x8(%rbp),%rax
    714a:	48 8b 10             	mov    (%rax),%rdx
    714d:	48 8b 45 f0          	mov    -0x10(%rbp),%rax
    7151:	48 8b 00             	mov    (%rax),%rax
    7154:	48 39 c2             	cmp    %rax,%rdx
    7157:	0f 94 c0             	sete   %al
    715a:	5d                   	pop    %rbp
    715b:	c3                   	ret

000000000000715c <_ZNSt3mapISt10shared_ptrI6node_tEiSt4lessIS2_ESaISt4pairIKS2_iEEEixERS6_>:
      operator[](const key_type& __k)
    715c:	f3 0f 1e fa          	endbr64
    7160:	55                   	push   %rbp
    7161:	48 89 e5             	mov    %rsp,%rbp
    7164:	53                   	push   %rbx
    7165:	48 83 ec 48          	sub    $0x48,%rsp
    7169:	48 89 7d b8          	mov    %rdi,-0x48(%rbp)
    716d:	48 89 75 b0          	mov    %rsi,-0x50(%rbp)
    7171:	64 48 8b 04 25 28 00 	mov    %fs:0x28,%rax
    7178:	00 00 
    717a:	48 89 45 e8          	mov    %rax,-0x18(%rbp)
    717e:	31 c0                	xor    %eax,%eax
	iterator __i = lower_bound(__k);
    7180:	48 8b 55 b0          	mov    -0x50(%rbp),%rdx
    7184:	48 8b 45 b8          	mov    -0x48(%rbp),%rax
    7188:	48 89 d6             	mov    %rdx,%rsi
    718b:	48 89 c7             	mov    %rax,%rdi
    718e:	e8 a3 0c 00 00       	call   7e36 <_ZNSt3mapISt10shared_ptrI6node_tEiSt4lessIS2_ESaISt4pairIKS2_iEEE11lower_boundERS6_>
    7193:	48 89 45 d0          	mov    %rax,-0x30(%rbp)
	if (__i == end() || key_comp()(__k, (*__i).first))
    7197:	48 8b 45 b8          	mov    -0x48(%rbp),%rax
    719b:	48 89 c7             	mov    %rax,%rdi
    719e:	e8 75 ff ff ff       	call   7118 <_ZNSt3mapISt10shared_ptrI6node_tEiSt4lessIS2_ESaISt4pairIKS2_iEEE3endEv>
    71a3:	48 89 45 e0          	mov    %rax,-0x20(%rbp)
    71a7:	48 8d 55 e0          	lea    -0x20(%rbp),%rdx
    71ab:	48 8d 45 d0          	lea    -0x30(%rbp),%rax
    71af:	48 89 d6             	mov    %rdx,%rsi
    71b2:	48 89 c7             	mov    %rax,%rdi
    71b5:	e8 7c ff ff ff       	call   7136 <_ZSteqRKSt17_Rb_tree_iteratorISt4pairIKSt10shared_ptrI6node_tEiEES8_>
    71ba:	84 c0                	test   %al,%al
    71bc:	75 32                	jne    71f0 <_ZNSt3mapISt10shared_ptrI6node_tEiSt4lessIS2_ESaISt4pairIKS2_iEEEixERS6_+0x94>
    71be:	48 8b 45 b8          	mov    -0x48(%rbp),%rax
    71c2:	48 89 c7             	mov    %rax,%rdi
    71c5:	e8 96 0c 00 00       	call   7e60 <_ZNKSt3mapISt10shared_ptrI6node_tEiSt4lessIS2_ESaISt4pairIKS2_iEEE8key_compEv>
    71ca:	48 8d 45 d0          	lea    -0x30(%rbp),%rax
    71ce:	48 89 c7             	mov    %rax,%rdi
    71d1:	e8 aa 0c 00 00       	call   7e80 <_ZNKSt17_Rb_tree_iteratorISt4pairIKSt10shared_ptrI6node_tEiEEdeEv>
    71d6:	48 89 c2             	mov    %rax,%rdx
    71d9:	48 8b 4d b0          	mov    -0x50(%rbp),%rcx
    71dd:	48 8d 45 d8          	lea    -0x28(%rbp),%rax
    71e1:	48 89 ce             	mov    %rcx,%rsi
    71e4:	48 89 c7             	mov    %rax,%rdi
    71e7:	e8 b6 0c 00 00       	call   7ea2 <_ZNKSt4lessISt10shared_ptrI6node_tEEclERKS2_S5_>
    71ec:	84 c0                	test   %al,%al
    71ee:	74 07                	je     71f7 <_ZNSt3mapISt10shared_ptrI6node_tEiSt4lessIS2_ESaISt4pairIKS2_iEEEixERS6_+0x9b>
    71f0:	b8 01 00 00 00       	mov    $0x1,%eax
    71f5:	eb 05                	jmp    71fc <_ZNSt3mapISt10shared_ptrI6node_tEiSt4lessIS2_ESaISt4pairIKS2_iEEEixERS6_+0xa0>
    71f7:	b8 00 00 00 00       	mov    $0x0,%eax
    71fc:	84 c0                	test   %al,%al
    71fe:	74 52                	je     7252 <_ZNSt3mapISt10shared_ptrI6node_tEiSt4lessIS2_ESaISt4pairIKS2_iEEEixERS6_+0xf6>
	  __i = _M_t._M_emplace_hint_unique(__i, std::piecewise_construct,
    7200:	48 8b 5d b8          	mov    -0x48(%rbp),%rbx
					    std::tuple<const key_type&>(__k),
    7204:	48 8b 55 b0          	mov    -0x50(%rbp),%rdx
    7208:	48 8d 45 d8          	lea    -0x28(%rbp),%rax
    720c:	48 89 d6             	mov    %rdx,%rsi
    720f:	48 89 c7             	mov    %rax,%rdi
    7212:	e8 f3 0c 00 00       	call   7f0a <_ZNSt5tupleIJRKSt10shared_ptrI6node_tEEEC1ILb1ELb1EEES4_>
	  __i = _M_t._M_emplace_hint_unique(__i, std::piecewise_construct,
    7217:	48 8d 55 d0          	lea    -0x30(%rbp),%rdx
    721b:	48 8d 45 e0          	lea    -0x20(%rbp),%rax
    721f:	48 89 d6             	mov    %rdx,%rsi
    7222:	48 89 c7             	mov    %rax,%rdi
    7225:	e8 0a 0d 00 00       	call   7f34 <_ZNSt23_Rb_tree_const_iteratorISt4pairIKSt10shared_ptrI6node_tEiEEC1ERKSt17_Rb_tree_iteratorIS5_E>
    722a:	48 8d 4d cf          	lea    -0x31(%rbp),%rcx
    722e:	48 8d 55 d8          	lea    -0x28(%rbp),%rdx
    7232:	48 8b 45 e0          	mov    -0x20(%rbp),%rax
    7236:	49 89 c8             	mov    %rcx,%r8
    7239:	48 89 d1             	mov    %rdx,%rcx
    723c:	48 8d 15 c1 ed 01 00 	lea    0x1edc1(%rip),%rdx        # 26004 <_ZSt19piecewise_construct>
    7243:	48 89 c6             	mov    %rax,%rsi
    7246:	48 89 df             	mov    %rbx,%rdi
    7249:	e8 08 0d 00 00       	call   7f56 <_ZNSt8_Rb_treeISt10shared_ptrI6node_tESt4pairIKS2_iESt10_Select1stIS5_ESt4lessIS2_ESaIS5_EE22_M_emplace_hint_uniqueIJRKSt21piecewise_construct_tSt5tupleIJRS4_EESG_IJEEEEESt17_Rb_tree_iteratorIS5_ESt23_Rb_tree_const_iteratorIS5_EDpOT_>
    724e:	48 89 45 d0          	mov    %rax,-0x30(%rbp)
	return (*__i).second;
    7252:	48 8d 45 d0          	lea    -0x30(%rbp),%rax
    7256:	48 89 c7             	mov    %rax,%rdi
    7259:	e8 22 0c 00 00       	call   7e80 <_ZNKSt17_Rb_tree_iteratorISt4pairIKSt10shared_ptrI6node_tEiEEdeEv>
    725e:	48 83 c0 10          	add    $0x10,%rax
      }
    7262:	48 8b 55 e8          	mov    -0x18(%rbp),%rdx
    7266:	64 48 2b 14 25 28 00 	sub    %fs:0x28,%rdx
    726d:	00 00 
    726f:	74 05                	je     7276 <_ZNSt3mapISt10shared_ptrI6node_tEiSt4lessIS2_ESaISt4pairIKS2_iEEEixERS6_+0x11a>
    7271:	e8 da e6 ff ff       	call   5950 <__stack_chk_fail@plt>
    7276:	48 8b 5d f8          	mov    -0x8(%rbp),%rbx
    727a:	c9                   	leave
    727b:	c3                   	ret

000000000000727c <_ZNKSt19__shared_ptr_accessI6node_tLN9__gnu_cxx12_Lock_policyE2ELb0ELb0EEdeEv>:
      operator*() const noexcept
    727c:	f3 0f 1e fa          	endbr64
    7280:	55                   	push   %rbp
    7281:	48 89 e5             	mov    %rsp,%rbp
    7284:	48 83 ec 10          	sub    $0x10,%rsp
    7288:	48 89 7d f8          	mov    %rdi,-0x8(%rbp)
	__glibcxx_assert(_M_get() != nullptr);
    728c:	e8 b0 f7 ff ff       	call   6a41 <_ZSt23__is_constant_evaluatedv>
    7291:	84 c0                	test   %al,%al
    7293:	74 18                	je     72ad <_ZNKSt19__shared_ptr_accessI6node_tLN9__gnu_cxx12_Lock_policyE2ELb0ELb0EEdeEv+0x31>
    7295:	48 8b 45 f8          	mov    -0x8(%rbp),%rax
    7299:	48 89 c7             	mov    %rax,%rdi
    729c:	e8 dd 0d 00 00       	call   807e <_ZNKSt19__shared_ptr_accessI6node_tLN9__gnu_cxx12_Lock_policyE2ELb0ELb0EE6_M_getEv>
    72a1:	48 85 c0             	test   %rax,%rax
    72a4:	75 07                	jne    72ad <_ZNKSt19__shared_ptr_accessI6node_tLN9__gnu_cxx12_Lock_policyE2ELb0ELb0EEdeEv+0x31>
    72a6:	b8 01 00 00 00       	mov    $0x1,%eax
    72ab:	eb 05                	jmp    72b2 <_ZNKSt19__shared_ptr_accessI6node_tLN9__gnu_cxx12_Lock_policyE2ELb0ELb0EEdeEv+0x36>
    72ad:	b8 00 00 00 00       	mov    $0x0,%eax
    72b2:	84 c0                	test   %al,%al
	return *_M_get();
    72b4:	48 8b 45 f8          	mov    -0x8(%rbp),%rax
    72b8:	48 89 c7             	mov    %rax,%rdi
    72bb:	e8 be 0d 00 00       	call   807e <_ZNKSt19__shared_ptr_accessI6node_tLN9__gnu_cxx12_Lock_policyE2ELb0ELb0EE6_M_getEv>
      }
    72c0:	c9                   	leave
    72c1:	c3                   	ret

00000000000072c2 <_ZNKSt19__shared_ptr_accessI6node_tLN9__gnu_cxx12_Lock_policyE2ELb0ELb0EEptEv>:
      operator->() const noexcept
    72c2:	f3 0f 1e fa          	endbr64
    72c6:	55                   	push   %rbp
    72c7:	48 89 e5             	mov    %rsp,%rbp
    72ca:	48 83 ec 10          	sub    $0x10,%rsp
    72ce:	48 89 7d f8          	mov    %rdi,-0x8(%rbp)
	return _M_get();
    72d2:	48 8b 45 f8          	mov    -0x8(%rbp),%rax
    72d6:	48 89 c7             	mov    %rax,%rdi
    72d9:	e8 a0 0d 00 00       	call   807e <_ZNKSt19__shared_ptr_accessI6node_tLN9__gnu_cxx12_Lock_policyE2ELb0ELb0EE6_M_getEv>
      }
    72de:	c9                   	leave
    72df:	c3                   	ret

00000000000072e0 <_ZNSt6vectorISt10shared_ptrI6node_tESaIS2_EE5beginEv>:
       *  element in the %vector.  Iteration is done in ordinary
       *  element order.
       */
      _GLIBCXX_NODISCARD _GLIBCXX20_CONSTEXPR
      iterator
      begin() _GLIBCXX_NOEXCEPT
    72e0:	f3 0f 1e fa          	endbr64
    72e4:	55                   	push   %rbp
    72e5:	48 89 e5             	mov    %rsp,%rbp
    72e8:	48 83 ec 20          	sub    $0x20,%rsp
    72ec:	48 89 7d e8          	mov    %rdi,-0x18(%rbp)
    72f0:	64 48 8b 04 25 28 00 	mov    %fs:0x28,%rax
    72f7:	00 00 
    72f9:	48 89 45 f8          	mov    %rax,-0x8(%rbp)
    72fd:	31 c0                	xor    %eax,%eax
      { return iterator(this->_M_impl._M_start); }
    72ff:	48 8b 55 e8          	mov    -0x18(%rbp),%rdx
    7303:	48 8d 45 f0          	lea    -0x10(%rbp),%rax
    7307:	48 89 d6             	mov    %rdx,%rsi
    730a:	48 89 c7             	mov    %rax,%rdi
    730d:	e8 8a 0d 00 00       	call   809c <_ZN9__gnu_cxx17__normal_iteratorIPSt10shared_ptrI6node_tESt6vectorIS3_SaIS3_EEEC1ERKS4_>
    7312:	48 8b 45 f0          	mov    -0x10(%rbp),%rax
    7316:	48 8b 55 f8          	mov    -0x8(%rbp),%rdx
    731a:	64 48 2b 14 25 28 00 	sub    %fs:0x28,%rdx
    7321:	00 00 
    7323:	74 05                	je     732a <_ZNSt6vectorISt10shared_ptrI6node_tESaIS2_EE5beginEv+0x4a>
    7325:	e8 26 e6 ff ff       	call   5950 <__stack_chk_fail@plt>
    732a:	c9                   	leave
    732b:	c3                   	ret

000000000000732c <_ZNSt6vectorISt10shared_ptrI6node_tESaIS2_EE3endEv>:
       *  element in the %vector.  Iteration is done in ordinary
       *  element order.
       */
      _GLIBCXX_NODISCARD _GLIBCXX20_CONSTEXPR
      iterator
      end() _GLIBCXX_NOEXCEPT
    732c:	f3 0f 1e fa          	endbr64
    7330:	55                   	push   %rbp
    7331:	48 89 e5             	mov    %rsp,%rbp
    7334:	48 83 ec 20          	sub    $0x20,%rsp
    7338:	48 89 7d e8          	mov    %rdi,-0x18(%rbp)
    733c:	64 48 8b 04 25 28 00 	mov    %fs:0x28,%rax
    7343:	00 00 
    7345:	48 89 45 f8          	mov    %rax,-0x8(%rbp)
    7349:	31 c0                	xor    %eax,%eax
      { return iterator(this->_M_impl._M_finish); }
    734b:	48 8b 45 e8          	mov    -0x18(%rbp),%rax
    734f:	48 8d 50 08          	lea    0x8(%rax),%rdx
    7353:	48 8d 45 f0          	lea    -0x10(%rbp),%rax
    7357:	48 89 d6             	mov    %rdx,%rsi
    735a:	48 89 c7             	mov    %rax,%rdi
    735d:	e8 3a 0d 00 00       	call   809c <_ZN9__gnu_cxx17__normal_iteratorIPSt10shared_ptrI6node_tESt6vectorIS3_SaIS3_EEEC1ERKS4_>
    7362:	48 8b 45 f0          	mov    -0x10(%rbp),%rax
    7366:	48 8b 55 f8          	mov    -0x8(%rbp),%rdx
    736a:	64 48 2b 14 25 28 00 	sub    %fs:0x28,%rdx
    7371:	00 00 
    7373:	74 05                	je     737a <_ZNSt6vectorISt10shared_ptrI6node_tESaIS2_EE3endEv+0x4e>
    7375:	e8 d6 e5 ff ff       	call   5950 <__stack_chk_fail@plt>
    737a:	c9                   	leave
    737b:	c3                   	ret

000000000000737c <_ZN9__gnu_cxx17__normal_iteratorIPSt10shared_ptrI6node_tESt6vectorIS3_SaIS3_EEEppEv>:
      operator++() _GLIBCXX_NOEXCEPT
    737c:	f3 0f 1e fa          	endbr64
    7380:	55                   	push   %rbp
    7381:	48 89 e5             	mov    %rsp,%rbp
    7384:	48 89 7d f8          	mov    %rdi,-0x8(%rbp)
	++_M_current;
    7388:	48 8b 45 f8          	mov    -0x8(%rbp),%rax
    738c:	48 8b 00             	mov    (%rax),%rax
    738f:	48 8d 50 10          	lea    0x10(%rax),%rdx
    7393:	48 8b 45 f8          	mov    -0x8(%rbp),%rax
    7397:	48 89 10             	mov    %rdx,(%rax)
	return *this;
    739a:	48 8b 45 f8          	mov    -0x8(%rbp),%rax
      }
    739e:	5d                   	pop    %rbp
    739f:	c3                   	ret

00000000000073a0 <_ZNSt6vectorIS_IiSaIiEESaIS1_EEixEm>:
       *  out_of_range lookups are not defined. (For checked lookups
       *  see at().)
       */
      _GLIBCXX_NODISCARD _GLIBCXX20_CONSTEXPR
      reference
      operator[](size_type __n) _GLIBCXX_NOEXCEPT
    73a0:	f3 0f 1e fa          	endbr64
    73a4:	55                   	push   %rbp
    73a5:	48 89 e5             	mov    %rsp,%rbp
    73a8:	48 89 7d f8          	mov    %rdi,-0x8(%rbp)
    73ac:	48 89 75 f0          	mov    %rsi,-0x10(%rbp)
      {
	__glibcxx_requires_subscript(__n);
	return *(this->_M_impl._M_start + __n);
    73b0:	48 8b 45 f8          	mov    -0x8(%rbp),%rax
    73b4:	48 8b 08             	mov    (%rax),%rcx
    73b7:	48 8b 55 f0          	mov    -0x10(%rbp),%rdx
    73bb:	48 89 d0             	mov    %rdx,%rax
    73be:	48 01 c0             	add    %rax,%rax
    73c1:	48 01 d0             	add    %rdx,%rax
    73c4:	48 c1 e0 03          	shl    $0x3,%rax
    73c8:	48 01 c8             	add    %rcx,%rax
      }
    73cb:	5d                   	pop    %rbp
    73cc:	c3                   	ret
    73cd:	90                   	nop

00000000000073ce <_ZNSt6vectorIiSaIiEE9push_backERKi>:
       *  done in constant time if the %vector has preallocated space
       *  available.
       */
      _GLIBCXX20_CONSTEXPR
      void
      push_back(const value_type& __x)
    73ce:	f3 0f 1e fa          	endbr64
    73d2:	55                   	push   %rbp
    73d3:	48 89 e5             	mov    %rsp,%rbp
    73d6:	48 83 ec 10          	sub    $0x10,%rsp
    73da:	48 89 7d f8          	mov    %rdi,-0x8(%rbp)
    73de:	48 89 75 f0          	mov    %rsi,-0x10(%rbp)
      {
	if (this->_M_impl._M_finish != this->_M_impl._M_end_of_storage)
    73e2:	48 8b 45 f8          	mov    -0x8(%rbp),%rax
    73e6:	48 8b 50 08          	mov    0x8(%rax),%rdx
    73ea:	48 8b 45 f8          	mov    -0x8(%rbp),%rax
    73ee:	48 8b 40 10          	mov    0x10(%rax),%rax
    73f2:	48 39 c2             	cmp    %rax,%rdx
    73f5:	74 31                	je     7428 <_ZNSt6vectorIiSaIiEE9push_backERKi+0x5a>
	  {
	    _GLIBCXX_ASAN_ANNOTATE_GROW(1);
	    _Alloc_traits::construct(this->_M_impl, this->_M_impl._M_finish,
    73f7:	48 8b 45 f8          	mov    -0x8(%rbp),%rax
    73fb:	48 8b 48 08          	mov    0x8(%rax),%rcx
    73ff:	48 8b 45 f8          	mov    -0x8(%rbp),%rax
    7403:	48 8b 55 f0          	mov    -0x10(%rbp),%rdx
    7407:	48 89 ce             	mov    %rcx,%rsi
    740a:	48 89 c7             	mov    %rax,%rdi
    740d:	e8 ab 0c 00 00       	call   80bd <_ZNSt16allocator_traitsISaIiEE9constructIiJRKiEEEvRS0_PT_DpOT0_>
				     __x);
	    ++this->_M_impl._M_finish;
    7412:	48 8b 45 f8          	mov    -0x8(%rbp),%rax
    7416:	48 8b 40 08          	mov    0x8(%rax),%rax
    741a:	48 8d 50 04          	lea    0x4(%rax),%rdx
    741e:	48 8b 45 f8          	mov    -0x8(%rbp),%rax
    7422:	48 89 50 08          	mov    %rdx,0x8(%rax)
	    _GLIBCXX_ASAN_ANNOTATE_GREW(1);
	  }
	else
	  _M_realloc_insert(end(), __x);
      }
    7426:	eb 22                	jmp    744a <_ZNSt6vectorIiSaIiEE9push_backERKi+0x7c>
	  _M_realloc_insert(end(), __x);
    7428:	48 8b 45 f8          	mov    -0x8(%rbp),%rax
    742c:	48 89 c7             	mov    %rax,%rdi
    742f:	e8 c2 0c 00 00       	call   80f6 <_ZNSt6vectorIiSaIiEE3endEv>
    7434:	48 89 c1             	mov    %rax,%rcx
    7437:	48 8b 55 f0          	mov    -0x10(%rbp),%rdx
    743b:	48 8b 45 f8          	mov    -0x8(%rbp),%rax
    743f:	48 89 ce             	mov    %rcx,%rsi
    7442:	48 89 c7             	mov    %rax,%rdi
    7445:	e8 ae 0e 00 00       	call   82f8 <_ZNSt6vectorIiSaIiEE17_M_realloc_insertIJRKiEEEvN9__gnu_cxx17__normal_iteratorIPiS1_EEDpOT_>
      }
    744a:	90                   	nop
    744b:	c9                   	leave
    744c:	c3                   	ret
    744d:	90                   	nop

000000000000744e <_ZNKSt19__shared_ptr_accessI7shape_tLN9__gnu_cxx12_Lock_policyE2ELb0ELb0EEptEv>:
      operator->() const noexcept
    744e:	f3 0f 1e fa          	endbr64
    7452:	55                   	push   %rbp
    7453:	48 89 e5             	mov    %rsp,%rbp
    7456:	48 83 ec 10          	sub    $0x10,%rsp
    745a:	48 89 7d f8          	mov    %rdi,-0x8(%rbp)
	return _M_get();
    745e:	48 8b 45 f8          	mov    -0x8(%rbp),%rax
    7462:	48 89 c7             	mov    %rax,%rdi
    7465:	e8 48 10 00 00       	call   84b2 <_ZNKSt19__shared_ptr_accessI7shape_tLN9__gnu_cxx12_Lock_policyE2ELb0ELb0EE6_M_getEv>
      }
    746a:	c9                   	leave
    746b:	c3                   	ret

000000000000746c <_ZNSt8_Rb_treeISt10shared_ptrI6node_tESt4pairIKS2_iESt10_Select1stIS5_ESt4lessIS2_ESaIS5_EE13_Rb_tree_implIS9_Lb1EEC1Ev>:
	  _Rb_tree_impl()
    746c:	f3 0f 1e fa          	endbr64
    7470:	55                   	push   %rbp
    7471:	48 89 e5             	mov    %rsp,%rbp
    7474:	48 83 ec 10          	sub    $0x10,%rsp
    7478:	48 89 7d f8          	mov    %rdi,-0x8(%rbp)
	  : _Node_allocator()
    747c:	48 8b 45 f8          	mov    -0x8(%rbp),%rax
    7480:	48 89 c7             	mov    %rax,%rdi
    7483:	e8 48 10 00 00       	call   84d0 <_ZNSaISt13_Rb_tree_nodeISt4pairIKSt10shared_ptrI6node_tEiEEEC1Ev>
    7488:	48 8b 45 f8          	mov    -0x8(%rbp),%rax
    748c:	48 89 c7             	mov    %rax,%rdi
    748f:	e8 5c 10 00 00       	call   84f0 <_ZNSt20_Rb_tree_key_compareISt4lessISt10shared_ptrI6node_tEEEC1Ev>
    7494:	48 8b 45 f8          	mov    -0x8(%rbp),%rax
    7498:	48 83 c0 08          	add    $0x8,%rax
    749c:	48 89 c7             	mov    %rax,%rdi
    749f:	e8 0c f8 ff ff       	call   6cb0 <_ZNSt15_Rb_tree_headerC1Ev>
	  { }
    74a4:	90                   	nop
    74a5:	c9                   	leave
    74a6:	c3                   	ret
    74a7:	90                   	nop

00000000000074a8 <_ZNSaISt13_Rb_tree_nodeISt4pairIKSt10shared_ptrI6node_tEiEEED1Ev>:
	allocator(const allocator<_Tp1>&) _GLIBCXX_NOTHROW { }

#if __cpp_constexpr_dynamic_alloc
      constexpr
#endif
      ~allocator() _GLIBCXX_NOTHROW { }
    74a8:	f3 0f 1e fa          	endbr64
    74ac:	55                   	push   %rbp
    74ad:	48 89 e5             	mov    %rsp,%rbp
    74b0:	48 89 7d f8          	mov    %rdi,-0x8(%rbp)
    74b4:	90                   	nop
    74b5:	5d                   	pop    %rbp
    74b6:	c3                   	ret
    74b7:	90                   	nop

00000000000074b8 <_ZNSt8_Rb_treeISt10shared_ptrI6node_tESt4pairIKS2_iESt10_Select1stIS5_ESt4lessIS2_ESaIS5_EED1Ev>:
      : _Rb_tree(std::move(__x), std::move(__a),
		 typename _Alloc_traits::is_always_equal{})
      { }
#endif

      ~_Rb_tree() _GLIBCXX_NOEXCEPT
    74b8:	f3 0f 1e fa          	endbr64
    74bc:	55                   	push   %rbp
    74bd:	48 89 e5             	mov    %rsp,%rbp
    74c0:	48 83 ec 10          	sub    $0x10,%rsp
    74c4:	48 89 7d f8          	mov    %rdi,-0x8(%rbp)
      { _M_erase(_M_begin()); }
    74c8:	48 8b 45 f8          	mov    -0x8(%rbp),%rax
    74cc:	48 89 c7             	mov    %rax,%rdi
    74cf:	e8 96 10 00 00       	call   856a <_ZNSt8_Rb_treeISt10shared_ptrI6node_tESt4pairIKS2_iESt10_Select1stIS5_ESt4lessIS2_ESaIS5_EE8_M_beginEv>
    74d4:	48 89 c2             	mov    %rax,%rdx
    74d7:	48 8b 45 f8          	mov    -0x8(%rbp),%rax
    74db:	48 89 d6             	mov    %rdx,%rsi
    74de:	48 89 c7             	mov    %rax,%rdi
    74e1:	e8 1a 10 00 00       	call   8500 <_ZNSt8_Rb_treeISt10shared_ptrI6node_tESt4pairIKS2_iESt10_Select1stIS5_ESt4lessIS2_ESaIS5_EE8_M_eraseEPSt13_Rb_tree_nodeIS5_E>
    74e6:	48 8b 45 f8          	mov    -0x8(%rbp),%rax
    74ea:	48 89 c7             	mov    %rax,%rdi
    74ed:	e8 8e f8 ff ff       	call   6d80 <_ZNSt8_Rb_treeISt10shared_ptrI6node_tESt4pairIKS2_iESt10_Select1stIS5_ESt4lessIS2_ESaIS5_EE13_Rb_tree_implIS9_Lb1EED1Ev>
    74f2:	90                   	nop
    74f3:	c9                   	leave
    74f4:	c3                   	ret
    74f5:	90                   	nop

00000000000074f6 <_ZNSaISt6vectorIiSaIiEEEC1Ev>:
      allocator() _GLIBCXX_NOTHROW { }
    74f6:	f3 0f 1e fa          	endbr64
    74fa:	55                   	push   %rbp
    74fb:	48 89 e5             	mov    %rsp,%rbp
    74fe:	48 83 ec 10          	sub    $0x10,%rsp
    7502:	48 89 7d f8          	mov    %rdi,-0x8(%rbp)
    7506:	48 8b 45 f8          	mov    -0x8(%rbp),%rax
    750a:	48 89 c7             	mov    %rax,%rdi
    750d:	e8 76 10 00 00       	call   8588 <_ZNSt15__new_allocatorISt6vectorIiSaIiEEEC1Ev>
    7512:	90                   	nop
    7513:	c9                   	leave
    7514:	c3                   	ret
    7515:	90                   	nop

0000000000007516 <_ZNSaISt6vectorIiSaIiEEED1Ev>:
      ~allocator() _GLIBCXX_NOTHROW { }
    7516:	f3 0f 1e fa          	endbr64
    751a:	55                   	push   %rbp
    751b:	48 89 e5             	mov    %rsp,%rbp
    751e:	48 89 7d f8          	mov    %rdi,-0x8(%rbp)
    7522:	90                   	nop
    7523:	5d                   	pop    %rbp
    7524:	c3                   	ret
    7525:	90                   	nop

0000000000007526 <_ZNSt6vectorIS_IiSaIiEESaIS1_EEC1EmRKS2_>:
      vector(size_type __n, const allocator_type& __a = allocator_type())
    7526:	f3 0f 1e fa          	endbr64
    752a:	55                   	push   %rbp
    752b:	48 89 e5             	mov    %rsp,%rbp
    752e:	53                   	push   %rbx
    752f:	48 83 ec 28          	sub    $0x28,%rsp
    7533:	48 89 7d e8          	mov    %rdi,-0x18(%rbp)
    7537:	48 89 75 e0          	mov    %rsi,-0x20(%rbp)
    753b:	48 89 55 d8          	mov    %rdx,-0x28(%rbp)
      : _Base(_S_check_init_len(__n, __a), __a)
    753f:	48 8b 5d e8          	mov    -0x18(%rbp),%rbx
    7543:	48 8b 55 d8          	mov    -0x28(%rbp),%rdx
    7547:	48 8b 45 e0          	mov    -0x20(%rbp),%rax
    754b:	48 89 d6             	mov    %rdx,%rsi
    754e:	48 89 c7             	mov    %rax,%rdi
    7551:	e8 41 10 00 00       	call   8597 <_ZNSt6vectorIS_IiSaIiEESaIS1_EE17_S_check_init_lenEmRKS2_>
    7556:	48 89 c1             	mov    %rax,%rcx
    7559:	48 8b 45 d8          	mov    -0x28(%rbp),%rax
    755d:	48 89 c2             	mov    %rax,%rdx
    7560:	48 89 ce             	mov    %rcx,%rsi
    7563:	48 89 df             	mov    %rbx,%rdi
    7566:	e8 d3 10 00 00       	call   863e <_ZNSt12_Vector_baseISt6vectorIiSaIiEESaIS2_EEC1EmRKS3_>
      { _M_default_initialize(__n); }
    756b:	48 8b 55 e0          	mov    -0x20(%rbp),%rdx
    756f:	48 8b 45 e8          	mov    -0x18(%rbp),%rax
    7573:	48 89 d6             	mov    %rdx,%rsi
    7576:	48 89 c7             	mov    %rax,%rdi
    7579:	e8 82 11 00 00       	call   8700 <_ZNSt6vectorIS_IiSaIiEESaIS1_EE21_M_default_initializeEm>
    757e:	eb 1e                	jmp    759e <_ZNSt6vectorIS_IiSaIiEESaIS1_EEC1EmRKS2_+0x78>
    7580:	f3 0f 1e fa          	endbr64
    7584:	48 89 c3             	mov    %rax,%rbx
    7587:	48 8b 45 e8          	mov    -0x18(%rbp),%rax
    758b:	48 89 c7             	mov    %rax,%rdi
    758e:	e8 11 11 00 00       	call   86a4 <_ZNSt12_Vector_baseISt6vectorIiSaIiEESaIS2_EED1Ev>
    7593:	48 89 d8             	mov    %rbx,%rax
    7596:	48 89 c7             	mov    %rax,%rdi
    7599:	e8 82 e5 ff ff       	call   5b20 <_Unwind_Resume@plt>
    759e:	48 8b 5d f8          	mov    -0x8(%rbp),%rbx
    75a2:	c9                   	leave
    75a3:	c3                   	ret

00000000000075a4 <_ZNSt6vectorIS_IiSaIiEESaIS1_EED1Ev>:
      ~vector() _GLIBCXX_NOEXCEPT
    75a4:	f3 0f 1e fa          	endbr64
    75a8:	55                   	push   %rbp
    75a9:	48 89 e5             	mov    %rsp,%rbp
    75ac:	48 83 ec 10          	sub    $0x10,%rsp
    75b0:	48 89 7d f8          	mov    %rdi,-0x8(%rbp)
		      _M_get_Tp_allocator());
    75b4:	48 8b 45 f8          	mov    -0x8(%rbp),%rax
    75b8:	48 89 c7             	mov    %rax,%rdi
    75bb:	e8 84 11 00 00       	call   8744 <_ZNSt12_Vector_baseISt6vectorIiSaIiEESaIS2_EE19_M_get_Tp_allocatorEv>
    75c0:	48 89 c2             	mov    %rax,%rdx
	std::_Destroy(this->_M_impl._M_start, this->_M_impl._M_finish,
    75c3:	48 8b 45 f8          	mov    -0x8(%rbp),%rax
    75c7:	48 8b 48 08          	mov    0x8(%rax),%rcx
    75cb:	48 8b 45 f8          	mov    -0x8(%rbp),%rax
    75cf:	48 8b 00             	mov    (%rax),%rax
    75d2:	48 89 ce             	mov    %rcx,%rsi
    75d5:	48 89 c7             	mov    %rax,%rdi
    75d8:	e8 79 11 00 00       	call   8756 <_ZSt8_DestroyIPSt6vectorIiSaIiEES2_EvT_S4_RSaIT0_E>
      }
    75dd:	48 8b 45 f8          	mov    -0x8(%rbp),%rax
    75e1:	48 89 c7             	mov    %rax,%rdi
    75e4:	e8 bb 10 00 00       	call   86a4 <_ZNSt12_Vector_baseISt6vectorIiSaIiEESaIS2_EED1Ev>
    75e9:	90                   	nop
    75ea:	c9                   	leave
    75eb:	c3                   	ret

00000000000075ec <_ZNSt6vectorIS_IiSaIiEESaIS1_EE5beginEv>:
      begin() _GLIBCXX_NOEXCEPT
    75ec:	f3 0f 1e fa          	endbr64
    75f0:	55                   	push   %rbp
    75f1:	48 89 e5             	mov    %rsp,%rbp
    75f4:	48 83 ec 20          	sub    $0x20,%rsp
    75f8:	48 89 7d e8          	mov    %rdi,-0x18(%rbp)
    75fc:	64 48 8b 04 25 28 00 	mov    %fs:0x28,%rax
    7603:	00 00 
    7605:	48 89 45 f8          	mov    %rax,-0x8(%rbp)
    7609:	31 c0                	xor    %eax,%eax
      { return iterator(this->_M_impl._M_start); }
    760b:	48 8b 55 e8          	mov    -0x18(%rbp),%rdx
    760f:	48 8d 45 f0          	lea    -0x10(%rbp),%rax
    7613:	48 89 d6             	mov    %rdx,%rsi
    7616:	48 89 c7             	mov    %rax,%rdi
    7619:	e8 66 11 00 00       	call   8784 <_ZN9__gnu_cxx17__normal_iteratorIPSt6vectorIiSaIiEES1_IS3_SaIS3_EEEC1ERKS4_>
    761e:	48 8b 45 f0          	mov    -0x10(%rbp),%rax
    7622:	48 8b 55 f8          	mov    -0x8(%rbp),%rdx
    7626:	64 48 2b 14 25 28 00 	sub    %fs:0x28,%rdx
    762d:	00 00 
    762f:	74 05                	je     7636 <_ZNSt6vectorIS_IiSaIiEESaIS1_EE5beginEv+0x4a>
    7631:	e8 1a e3 ff ff       	call   5950 <__stack_chk_fail@plt>
    7636:	c9                   	leave
    7637:	c3                   	ret

0000000000007638 <_ZNSt6vectorIS_IiSaIiEESaIS1_EE3endEv>:
      end() _GLIBCXX_NOEXCEPT
    7638:	f3 0f 1e fa          	endbr64
    763c:	55                   	push   %rbp
    763d:	48 89 e5             	mov    %rsp,%rbp
    7640:	48 83 ec 20          	sub    $0x20,%rsp
    7644:	48 89 7d e8          	mov    %rdi,-0x18(%rbp)
    7648:	64 48 8b 04 25 28 00 	mov    %fs:0x28,%rax
    764f:	00 00 
    7651:	48 89 45 f8          	mov    %rax,-0x8(%rbp)
    7655:	31 c0                	xor    %eax,%eax
      { return iterator(this->_M_impl._M_finish); }
    7657:	48 8b 45 e8          	mov    -0x18(%rbp),%rax
    765b:	48 8d 50 08          	lea    0x8(%rax),%rdx
    765f:	48 8d 45 f0          	lea    -0x10(%rbp),%rax
    7663:	48 89 d6             	mov    %rdx,%rsi
    7666:	48 89 c7             	mov    %rax,%rdi
    7669:	e8 16 11 00 00       	call   8784 <_ZN9__gnu_cxx17__normal_iteratorIPSt6vectorIiSaIiEES1_IS3_SaIS3_EEEC1ERKS4_>
    766e:	48 8b 45 f0          	mov    -0x10(%rbp),%rax
    7672:	48 8b 55 f8          	mov    -0x8(%rbp),%rdx
    7676:	64 48 2b 14 25 28 00 	sub    %fs:0x28,%rdx
    767d:	00 00 
    767f:	74 05                	je     7686 <_ZNSt6vectorIS_IiSaIiEESaIS1_EE3endEv+0x4e>
    7681:	e8 ca e2 ff ff       	call   5950 <__stack_chk_fail@plt>
    7686:	c9                   	leave
    7687:	c3                   	ret

0000000000007688 <_ZN9__gnu_cxx17__normal_iteratorIPSt6vectorIiSaIiEES1_IS3_SaIS3_EEEppEv>:
      operator++() _GLIBCXX_NOEXCEPT
    7688:	f3 0f 1e fa          	endbr64
    768c:	55                   	push   %rbp
    768d:	48 89 e5             	mov    %rsp,%rbp
    7690:	48 89 7d f8          	mov    %rdi,-0x8(%rbp)
	++_M_current;
    7694:	48 8b 45 f8          	mov    -0x8(%rbp),%rax
    7698:	48 8b 00             	mov    (%rax),%rax
    769b:	48 8d 50 18          	lea    0x18(%rax),%rdx
    769f:	48 8b 45 f8          	mov    -0x8(%rbp),%rax
    76a3:	48 89 10             	mov    %rdx,(%rax)
	return *this;
    76a6:	48 8b 45 f8          	mov    -0x8(%rbp),%rax
      }
    76aa:	5d                   	pop    %rbp
    76ab:	c3                   	ret

00000000000076ac <_ZNKSt6vectorIiSaIiEE4sizeEv>:
      size() const _GLIBCXX_NOEXCEPT
    76ac:	f3 0f 1e fa          	endbr64
    76b0:	55                   	push   %rbp
    76b1:	48 89 e5             	mov    %rsp,%rbp
    76b4:	48 89 7d f8          	mov    %rdi,-0x8(%rbp)
      { return size_type(this->_M_impl._M_finish - this->_M_impl._M_start); }
    76b8:	48 8b 45 f8          	mov    -0x8(%rbp),%rax
    76bc:	48 8b 50 08          	mov    0x8(%rax),%rdx
    76c0:	48 8b 45 f8          	mov    -0x8(%rbp),%rax
    76c4:	48 8b 00             	mov    (%rax),%rax
    76c7:	48 29 c2             	sub    %rax,%rdx
    76ca:	48 89 d0             	mov    %rdx,%rax
    76cd:	48 c1 f8 02          	sar    $0x2,%rax
    76d1:	5d                   	pop    %rbp
    76d2:	c3                   	ret
    76d3:	90                   	nop

00000000000076d4 <_ZNKSt6vectorIiSaIiEE5beginEv>:
      begin() const _GLIBCXX_NOEXCEPT
    76d4:	f3 0f 1e fa          	endbr64
    76d8:	55                   	push   %rbp
    76d9:	48 89 e5             	mov    %rsp,%rbp
    76dc:	48 83 ec 20          	sub    $0x20,%rsp
    76e0:	48 89 7d e8          	mov    %rdi,-0x18(%rbp)
    76e4:	64 48 8b 04 25 28 00 	mov    %fs:0x28,%rax
    76eb:	00 00 
    76ed:	48 89 45 f8          	mov    %rax,-0x8(%rbp)
    76f1:	31 c0                	xor    %eax,%eax
      { return const_iterator(this->_M_impl._M_start); }
    76f3:	48 8b 55 e8          	mov    -0x18(%rbp),%rdx
    76f7:	48 8d 45 f0          	lea    -0x10(%rbp),%rax
    76fb:	48 89 d6             	mov    %rdx,%rsi
    76fe:	48 89 c7             	mov    %rax,%rdi
    7701:	e8 a0 10 00 00       	call   87a6 <_ZN9__gnu_cxx17__normal_iteratorIPKiSt6vectorIiSaIiEEEC1ERKS2_>
    7706:	48 8b 45 f0          	mov    -0x10(%rbp),%rax
    770a:	48 8b 55 f8          	mov    -0x8(%rbp),%rdx
    770e:	64 48 2b 14 25 28 00 	sub    %fs:0x28,%rdx
    7715:	00 00 
    7717:	74 05                	je     771e <_ZNKSt6vectorIiSaIiEE5beginEv+0x4a>
    7719:	e8 32 e2 ff ff       	call   5950 <__stack_chk_fail@plt>
    771e:	c9                   	leave
    771f:	c3                   	ret

0000000000007720 <_ZNKSt6vectorIiSaIiEE3endEv>:
      end() const _GLIBCXX_NOEXCEPT
    7720:	f3 0f 1e fa          	endbr64
    7724:	55                   	push   %rbp
    7725:	48 89 e5             	mov    %rsp,%rbp
    7728:	48 83 ec 20          	sub    $0x20,%rsp
    772c:	48 89 7d e8          	mov    %rdi,-0x18(%rbp)
    7730:	64 48 8b 04 25 28 00 	mov    %fs:0x28,%rax
    7737:	00 00 
    7739:	48 89 45 f8          	mov    %rax,-0x8(%rbp)
    773d:	31 c0                	xor    %eax,%eax
      { return const_iterator(this->_M_impl._M_finish); }
    773f:	48 8b 45 e8          	mov    -0x18(%rbp),%rax
    7743:	48 8d 50 08          	lea    0x8(%rax),%rdx
    7747:	48 8d 45 f0          	lea    -0x10(%rbp),%rax
    774b:	48 89 d6             	mov    %rdx,%rsi
    774e:	48 89 c7             	mov    %rax,%rdi
    7751:	e8 50 10 00 00       	call   87a6 <_ZN9__gnu_cxx17__normal_iteratorIPKiSt6vectorIiSaIiEEEC1ERKS2_>
    7756:	48 8b 45 f0          	mov    -0x10(%rbp),%rax
    775a:	48 8b 55 f8          	mov    -0x8(%rbp),%rdx
    775e:	64 48 2b 14 25 28 00 	sub    %fs:0x28,%rdx
    7765:	00 00 
    7767:	74 05                	je     776e <_ZNKSt6vectorIiSaIiEE3endEv+0x4e>
    7769:	e8 e2 e1 ff ff       	call   5950 <__stack_chk_fail@plt>
    776e:	c9                   	leave
    776f:	c3                   	ret

0000000000007770 <_ZN9__gnu_cxx17__normal_iteratorIPKiSt6vectorIiSaIiEEEppEv>:
      operator++() _GLIBCXX_NOEXCEPT
    7770:	f3 0f 1e fa          	endbr64
    7774:	55                   	push   %rbp
    7775:	48 89 e5             	mov    %rsp,%rbp
    7778:	48 89 7d f8          	mov    %rdi,-0x8(%rbp)
	++_M_current;
    777c:	48 8b 45 f8          	mov    -0x8(%rbp),%rax
    7780:	48 8b 00             	mov    (%rax),%rax
    7783:	48 8d 50 04          	lea    0x4(%rax),%rdx
    7787:	48 8b 45 f8          	mov    -0x8(%rbp),%rax
    778b:	48 89 10             	mov    %rdx,(%rax)
	return *this;
    778e:	48 8b 45 f8          	mov    -0x8(%rbp),%rax
      }
    7792:	5d                   	pop    %rbp
    7793:	c3                   	ret

0000000000007794 <_ZSt11make_sharedI7model_tJRjS1_EESt10shared_ptrIT_EDpOT0_>:
   *  @throw  std::bad_alloc, or an exception thrown from the
   *          constructor of @a _Tp.
   */
  template<typename _Tp, typename... _Args>
    inline shared_ptr<_NonArray<_Tp>>
    make_shared(_Args&&... __args)
    7794:	f3 0f 1e fa          	endbr64
    7798:	55                   	push   %rbp
    7799:	48 89 e5             	mov    %rsp,%rbp
    779c:	53                   	push   %rbx
    779d:	48 83 ec 38          	sub    $0x38,%rsp
    77a1:	48 89 7d d8          	mov    %rdi,-0x28(%rbp)
    77a5:	48 89 75 d0          	mov    %rsi,-0x30(%rbp)
    77a9:	48 89 55 c8          	mov    %rdx,-0x38(%rbp)
    77ad:	64 48 8b 04 25 28 00 	mov    %fs:0x28,%rax
    77b4:	00 00 
    77b6:	48 89 45 e8          	mov    %rax,-0x18(%rbp)
    77ba:	31 c0                	xor    %eax,%eax
    {
      using _Alloc = allocator<void>;
      _Alloc __a;
      return shared_ptr<_Tp>(_Sp_alloc_shared_tag<_Alloc>{__a},
			     std::forward<_Args>(__args)...);
    77bc:	48 8b 45 c8          	mov    -0x38(%rbp),%rax
    77c0:	48 89 c7             	mov    %rax,%rdi
    77c3:	e8 ff 0f 00 00       	call   87c7 <_ZSt7forwardIRjEOT_RNSt16remove_referenceIS1_E4typeE>
    77c8:	48 89 c3             	mov    %rax,%rbx
    77cb:	48 8b 45 d0          	mov    -0x30(%rbp),%rax
    77cf:	48 89 c7             	mov    %rax,%rdi
    77d2:	e8 f0 0f 00 00       	call   87c7 <_ZSt7forwardIRjEOT_RNSt16remove_referenceIS1_E4typeE>
    77d7:	48 89 c2             	mov    %rax,%rdx
    77da:	48 8d 45 e7          	lea    -0x19(%rbp),%rax
    77de:	48 89 c6             	mov    %rax,%rsi
    77e1:	48 8b 45 d8          	mov    -0x28(%rbp),%rax
    77e5:	48 89 d9             	mov    %rbx,%rcx
    77e8:	48 89 c7             	mov    %rax,%rdi
    77eb:	e8 ea 0f 00 00       	call   87da <_ZNSt10shared_ptrI7model_tEC1ISaIvEJRjS4_EEESt20_Sp_alloc_shared_tagIT_EDpOT0_>
    }
    77f0:	48 8b 45 e8          	mov    -0x18(%rbp),%rax
    77f4:	64 48 2b 04 25 28 00 	sub    %fs:0x28,%rax
    77fb:	00 00 
    77fd:	74 05                	je     7804 <_ZSt11make_sharedI7model_tJRjS1_EESt10shared_ptrIT_EDpOT0_+0x70>
    77ff:	e8 4c e1 ff ff       	call   5950 <__stack_chk_fail@plt>
    7804:	48 8b 45 d8          	mov    -0x28(%rbp),%rax
    7808:	48 8b 5d f8          	mov    -0x8(%rbp),%rbx
    780c:	c9                   	leave
    780d:	c3                   	ret

000000000000780e <_ZNSt14__shared_countILN9__gnu_cxx12_Lock_policyE2EED1Ev>:
      ~__shared_count() noexcept
    780e:	f3 0f 1e fa          	endbr64
    7812:	55                   	push   %rbp
    7813:	48 89 e5             	mov    %rsp,%rbp
    7816:	48 83 ec 10          	sub    $0x10,%rsp
    781a:	48 89 7d f8          	mov    %rdi,-0x8(%rbp)
	if (_M_pi != nullptr)
    781e:	48 8b 45 f8          	mov    -0x8(%rbp),%rax
    7822:	48 8b 00             	mov    (%rax),%rax
    7825:	48 85 c0             	test   %rax,%rax
    7828:	74 0f                	je     7839 <_ZNSt14__shared_countILN9__gnu_cxx12_Lock_policyE2EED1Ev+0x2b>
	  _M_pi->_M_release();
    782a:	48 8b 45 f8          	mov    -0x8(%rbp),%rax
    782e:	48 8b 00             	mov    (%rax),%rax
    7831:	48 89 c7             	mov    %rax,%rdi
    7834:	e8 35 f3 ff ff       	call   6b6e <_ZNSt16_Sp_counted_baseILN9__gnu_cxx12_Lock_policyE2EE10_M_releaseEv>
      }
    7839:	90                   	nop
    783a:	c9                   	leave
    783b:	c3                   	ret

000000000000783c <_ZNSaISt10shared_ptrI6node_tEEC1Ev>:
      allocator() _GLIBCXX_NOTHROW { }
    783c:	f3 0f 1e fa          	endbr64
    7840:	55                   	push   %rbp
    7841:	48 89 e5             	mov    %rsp,%rbp
    7844:	48 83 ec 10          	sub    $0x10,%rsp
    7848:	48 89 7d f8          	mov    %rdi,-0x8(%rbp)
    784c:	48 8b 45 f8          	mov    -0x8(%rbp),%rax
    7850:	48 89 c7             	mov    %rax,%rdi
    7853:	e8 e0 0f 00 00       	call   8838 <_ZNSt15__new_allocatorISt10shared_ptrI6node_tEEC1Ev>
    7858:	90                   	nop
    7859:	c9                   	leave
    785a:	c3                   	ret
    785b:	90                   	nop

000000000000785c <_ZNSaISt10shared_ptrI6node_tEED1Ev>:
      ~allocator() _GLIBCXX_NOTHROW { }
    785c:	f3 0f 1e fa          	endbr64
    7860:	55                   	push   %rbp
    7861:	48 89 e5             	mov    %rsp,%rbp
    7864:	48 89 7d f8          	mov    %rdi,-0x8(%rbp)
    7868:	90                   	nop
    7869:	5d                   	pop    %rbp
    786a:	c3                   	ret
    786b:	90                   	nop

000000000000786c <_ZNSt6vectorISt10shared_ptrI6node_tESaIS2_EEC1EmRKS3_>:
      vector(size_type __n, const allocator_type& __a = allocator_type())
    786c:	f3 0f 1e fa          	endbr64
    7870:	55                   	push   %rbp
    7871:	48 89 e5             	mov    %rsp,%rbp
    7874:	53                   	push   %rbx
    7875:	48 83 ec 28          	sub    $0x28,%rsp
    7879:	48 89 7d e8          	mov    %rdi,-0x18(%rbp)
    787d:	48 89 75 e0          	mov    %rsi,-0x20(%rbp)
    7881:	48 89 55 d8          	mov    %rdx,-0x28(%rbp)
      : _Base(_S_check_init_len(__n, __a), __a)
    7885:	48 8b 5d e8          	mov    -0x18(%rbp),%rbx
    7889:	48 8b 55 d8          	mov    -0x28(%rbp),%rdx
    788d:	48 8b 45 e0          	mov    -0x20(%rbp),%rax
    7891:	48 89 d6             	mov    %rdx,%rsi
    7894:	48 89 c7             	mov    %rax,%rdi
    7897:	e8 ab 0f 00 00       	call   8847 <_ZNSt6vectorISt10shared_ptrI6node_tESaIS2_EE17_S_check_init_lenEmRKS3_>
    789c:	48 89 c1             	mov    %rax,%rcx
    789f:	48 8b 45 d8          	mov    -0x28(%rbp),%rax
    78a3:	48 89 c2             	mov    %rax,%rdx
    78a6:	48 89 ce             	mov    %rcx,%rsi
    78a9:	48 89 df             	mov    %rbx,%rdi
    78ac:	e8 3d 10 00 00       	call   88ee <_ZNSt12_Vector_baseISt10shared_ptrI6node_tESaIS2_EEC1EmRKS3_>
      { _M_default_initialize(__n); }
    78b1:	48 8b 55 e0          	mov    -0x20(%rbp),%rdx
    78b5:	48 8b 45 e8          	mov    -0x18(%rbp),%rax
    78b9:	48 89 d6             	mov    %rdx,%rsi
    78bc:	48 89 c7             	mov    %rax,%rdi
    78bf:	e8 e2 10 00 00       	call   89a6 <_ZNSt6vectorISt10shared_ptrI6node_tESaIS2_EE21_M_default_initializeEm>
    78c4:	eb 1e                	jmp    78e4 <_ZNSt6vectorISt10shared_ptrI6node_tESaIS2_EEC1EmRKS3_+0x78>
    78c6:	f3 0f 1e fa          	endbr64
    78ca:	48 89 c3             	mov    %rax,%rbx
    78cd:	48 8b 45 e8          	mov    -0x18(%rbp),%rax
    78d1:	48 89 c7             	mov    %rax,%rdi
    78d4:	e8 7b 10 00 00       	call   8954 <_ZNSt12_Vector_baseISt10shared_ptrI6node_tESaIS2_EED1Ev>
    78d9:	48 89 d8             	mov    %rbx,%rax
    78dc:	48 89 c7             	mov    %rax,%rdi
    78df:	e8 3c e2 ff ff       	call   5b20 <_Unwind_Resume@plt>
    78e4:	48 8b 5d f8          	mov    -0x8(%rbp),%rbx
    78e8:	c9                   	leave
    78e9:	c3                   	ret

00000000000078ea <_ZNSt6vectorISt10shared_ptrI6node_tESaIS2_EED1Ev>:
      ~vector() _GLIBCXX_NOEXCEPT
    78ea:	f3 0f 1e fa          	endbr64
    78ee:	55                   	push   %rbp
    78ef:	48 89 e5             	mov    %rsp,%rbp
    78f2:	48 83 ec 10          	sub    $0x10,%rsp
    78f6:	48 89 7d f8          	mov    %rdi,-0x8(%rbp)
		      _M_get_Tp_allocator());
    78fa:	48 8b 45 f8          	mov    -0x8(%rbp),%rax
    78fe:	48 89 c7             	mov    %rax,%rdi
    7901:	e8 e4 10 00 00       	call   89ea <_ZNSt12_Vector_baseISt10shared_ptrI6node_tESaIS2_EE19_M_get_Tp_allocatorEv>
    7906:	48 89 c2             	mov    %rax,%rdx
	std::_Destroy(this->_M_impl._M_start, this->_M_impl._M_finish,
    7909:	48 8b 45 f8          	mov    -0x8(%rbp),%rax
    790d:	48 8b 48 08          	mov    0x8(%rax),%rcx
    7911:	48 8b 45 f8          	mov    -0x8(%rbp),%rax
    7915:	48 8b 00             	mov    (%rax),%rax
    7918:	48 89 ce             	mov    %rcx,%rsi
    791b:	48 89 c7             	mov    %rax,%rdi
    791e:	e8 d9 10 00 00       	call   89fc <_ZSt8_DestroyIPSt10shared_ptrI6node_tES2_EvT_S4_RSaIT0_E>
      }
    7923:	48 8b 45 f8          	mov    -0x8(%rbp),%rax
    7927:	48 89 c7             	mov    %rax,%rdi
    792a:	e8 25 10 00 00       	call   8954 <_ZNSt12_Vector_baseISt10shared_ptrI6node_tESaIS2_EED1Ev>
    792f:	90                   	nop
    7930:	c9                   	leave
    7931:	c3                   	ret

0000000000007932 <_ZNSt6vectorISt10shared_ptrI6node_tESaIS2_EEixEm>:
      operator[](size_type __n) _GLIBCXX_NOEXCEPT
    7932:	f3 0f 1e fa          	endbr64
    7936:	55                   	push   %rbp
    7937:	48 89 e5             	mov    %rsp,%rbp
    793a:	48 89 7d f8          	mov    %rdi,-0x8(%rbp)
    793e:	48 89 75 f0          	mov    %rsi,-0x10(%rbp)
	return *(this->_M_impl._M_start + __n);
    7942:	48 8b 45 f8          	mov    -0x8(%rbp),%rax
    7946:	48 8b 00             	mov    (%rax),%rax
    7949:	48 8b 55 f0          	mov    -0x10(%rbp),%rdx
    794d:	48 c1 e2 04          	shl    $0x4,%rdx
    7951:	48 01 d0             	add    %rdx,%rax
      }
    7954:	5d                   	pop    %rbp
    7955:	c3                   	ret

0000000000007956 <_ZNSt10__weak_ptrI6node_tLN9__gnu_cxx12_Lock_policyE2EEC1Ev>:
      constexpr __weak_ptr() noexcept
    7956:	f3 0f 1e fa          	endbr64
    795a:	55                   	push   %rbp
    795b:	48 89 e5             	mov    %rsp,%rbp
    795e:	48 83 ec 10          	sub    $0x10,%rsp
    7962:	48 89 7d f8          	mov    %rdi,-0x8(%rbp)
      : _M_ptr(nullptr), _M_refcount()
    7966:	48 8b 45 f8          	mov    -0x8(%rbp),%rax
    796a:	48 c7 00 00 00 00 00 	movq   $0x0,(%rax)
    7971:	48 8b 45 f8          	mov    -0x8(%rbp),%rax
    7975:	48 83 c0 08          	add    $0x8,%rax
    7979:	48 89 c7             	mov    %rax,%rdi
    797c:	e8 a9 10 00 00       	call   8a2a <_ZNSt12__weak_countILN9__gnu_cxx12_Lock_policyE2EEC1Ev>
      { }
    7981:	90                   	nop
    7982:	c9                   	leave
    7983:	c3                   	ret

0000000000007984 <_ZNSt12__weak_countILN9__gnu_cxx12_Lock_policyE2EED1Ev>:
      ~__weak_count() noexcept
    7984:	f3 0f 1e fa          	endbr64
    7988:	55                   	push   %rbp
    7989:	48 89 e5             	mov    %rsp,%rbp
    798c:	48 83 ec 10          	sub    $0x10,%rsp
    7990:	48 89 7d f8          	mov    %rdi,-0x8(%rbp)
	if (_M_pi != nullptr)
    7994:	48 8b 45 f8          	mov    -0x8(%rbp),%rax
    7998:	48 8b 00             	mov    (%rax),%rax
    799b:	48 85 c0             	test   %rax,%rax
    799e:	74 0f                	je     79af <_ZNSt12__weak_countILN9__gnu_cxx12_Lock_policyE2EED1Ev+0x2b>
	  _M_pi->_M_weak_release();
    79a0:	48 8b 45 f8          	mov    -0x8(%rbp),%rax
    79a4:	48 8b 00             	mov    (%rax),%rax
    79a7:	48 89 c7             	mov    %rax,%rdi
    79aa:	e8 95 10 00 00       	call   8a44 <_ZNSt16_Sp_counted_baseILN9__gnu_cxx12_Lock_policyE2EE15_M_weak_releaseEv>
      }
    79af:	90                   	nop
    79b0:	c9                   	leave
    79b1:	c3                   	ret

00000000000079b2 <_ZSt11make_sharedI6node_tJSt8weak_ptrIS0_ER12shape_type_tRiRjS6_EESt10shared_ptrIT_EDpOT0_>:
    make_shared(_Args&&... __args)
    79b2:	f3 0f 1e fa          	endbr64
    79b6:	55                   	push   %rbp
    79b7:	48 89 e5             	mov    %rsp,%rbp
    79ba:	41 56                	push   %r14
    79bc:	41 55                	push   %r13
    79be:	41 54                	push   %r12
    79c0:	53                   	push   %rbx
    79c1:	48 83 ec 40          	sub    $0x40,%rsp
    79c5:	48 89 7d c8          	mov    %rdi,-0x38(%rbp)
    79c9:	48 89 75 c0          	mov    %rsi,-0x40(%rbp)
    79cd:	48 89 55 b8          	mov    %rdx,-0x48(%rbp)
    79d1:	48 89 4d b0          	mov    %rcx,-0x50(%rbp)
    79d5:	4c 89 45 a8          	mov    %r8,-0x58(%rbp)
    79d9:	4c 89 4d a0          	mov    %r9,-0x60(%rbp)
    79dd:	64 48 8b 04 25 28 00 	mov    %fs:0x28,%rax
    79e4:	00 00 
    79e6:	48 89 45 d8          	mov    %rax,-0x28(%rbp)
    79ea:	31 c0                	xor    %eax,%eax
			     std::forward<_Args>(__args)...);
    79ec:	48 8b 45 a0          	mov    -0x60(%rbp),%rax
    79f0:	48 89 c7             	mov    %rax,%rdi
    79f3:	e8 cf 0d 00 00       	call   87c7 <_ZSt7forwardIRjEOT_RNSt16remove_referenceIS1_E4typeE>
    79f8:	48 89 c3             	mov    %rax,%rbx
    79fb:	48 8b 45 a8          	mov    -0x58(%rbp),%rax
    79ff:	48 89 c7             	mov    %rax,%rdi
    7a02:	e8 c0 0d 00 00       	call   87c7 <_ZSt7forwardIRjEOT_RNSt16remove_referenceIS1_E4typeE>
    7a07:	49 89 c6             	mov    %rax,%r14
    7a0a:	48 8b 45 b0          	mov    -0x50(%rbp),%rax
    7a0e:	48 89 c7             	mov    %rax,%rdi
    7a11:	e8 f2 10 00 00       	call   8b08 <_ZSt7forwardIRiEOT_RNSt16remove_referenceIS1_E4typeE>
    7a16:	49 89 c5             	mov    %rax,%r13
    7a19:	48 8b 45 b8          	mov    -0x48(%rbp),%rax
    7a1d:	48 89 c7             	mov    %rax,%rdi
    7a20:	e8 d1 10 00 00       	call   8af6 <_ZSt7forwardIR12shape_type_tEOT_RNSt16remove_referenceIS2_E4typeE>
    7a25:	49 89 c4             	mov    %rax,%r12
    7a28:	48 8b 45 c0          	mov    -0x40(%rbp),%rax
    7a2c:	48 89 c7             	mov    %rax,%rdi
    7a2f:	e8 b0 10 00 00       	call   8ae4 <_ZSt7forwardISt8weak_ptrI6node_tEEOT_RNSt16remove_referenceIS3_E4typeE>
    7a34:	48 89 c2             	mov    %rax,%rdx
    7a37:	48 8d 45 d7          	lea    -0x29(%rbp),%rax
    7a3b:	48 89 c6             	mov    %rax,%rsi
    7a3e:	48 8b 45 c8          	mov    -0x38(%rbp),%rax
    7a42:	48 83 ec 08          	sub    $0x8,%rsp
    7a46:	53                   	push   %rbx
    7a47:	4d 89 f1             	mov    %r14,%r9
    7a4a:	4d 89 e8             	mov    %r13,%r8
    7a4d:	4c 89 e1             	mov    %r12,%rcx
    7a50:	48 89 c7             	mov    %rax,%rdi
    7a53:	e8 c2 10 00 00       	call   8b1a <_ZNSt10shared_ptrI6node_tEC1ISaIvEJSt8weak_ptrIS0_ER12shape_type_tRiRjS9_EEESt20_Sp_alloc_shared_tagIT_EDpOT0_>
    7a58:	48 83 c4 10          	add    $0x10,%rsp
    }
    7a5c:	48 8b 45 d8          	mov    -0x28(%rbp),%rax
    7a60:	64 48 2b 04 25 28 00 	sub    %fs:0x28,%rax
    7a67:	00 00 
    7a69:	74 05                	je     7a70 <_ZSt11make_sharedI6node_tJSt8weak_ptrIS0_ER12shape_type_tRiRjS6_EESt10shared_ptrIT_EDpOT0_+0xbe>
    7a6b:	e8 e0 de ff ff       	call   5950 <__stack_chk_fail@plt>
    7a70:	48 8b 45 c8          	mov    -0x38(%rbp),%rax
    7a74:	48 8d 65 e0          	lea    -0x20(%rbp),%rsp
    7a78:	5b                   	pop    %rbx
    7a79:	41 5c                	pop    %r12
    7a7b:	41 5d                	pop    %r13
    7a7d:	41 5e                	pop    %r14
    7a7f:	5d                   	pop    %rbp
    7a80:	c3                   	ret
    7a81:	90                   	nop

0000000000007a82 <_ZNSt10shared_ptrI6node_tEaSEOS1_>:
      operator=(shared_ptr&& __r) noexcept
    7a82:	f3 0f 1e fa          	endbr64
    7a86:	55                   	push   %rbp
    7a87:	48 89 e5             	mov    %rsp,%rbp
    7a8a:	53                   	push   %rbx
    7a8b:	48 83 ec 18          	sub    $0x18,%rsp
    7a8f:	48 89 7d e8          	mov    %rdi,-0x18(%rbp)
    7a93:	48 89 75 e0          	mov    %rsi,-0x20(%rbp)
	this->__shared_ptr<_Tp>::operator=(std::move(__r));
    7a97:	48 8b 5d e8          	mov    -0x18(%rbp),%rbx
    7a9b:	48 8b 45 e0          	mov    -0x20(%rbp),%rax
    7a9f:	48 89 c7             	mov    %rax,%rdi
    7aa2:	e8 21 11 00 00       	call   8bc8 <_ZSt4moveIRSt10shared_ptrI6node_tEEONSt16remove_referenceIT_E4typeEOS5_>
    7aa7:	48 89 c6             	mov    %rax,%rsi
    7aaa:	48 89 df             	mov    %rbx,%rdi
    7aad:	e8 28 11 00 00       	call   8bda <_ZNSt12__shared_ptrI6node_tLN9__gnu_cxx12_Lock_policyE2EEaSEOS3_>
	return *this;
    7ab2:	48 8b 45 e8          	mov    -0x18(%rbp),%rax
      }
    7ab6:	48 8b 5d f8          	mov    -0x8(%rbp),%rbx
    7aba:	c9                   	leave
    7abb:	c3                   	ret

0000000000007abc <_ZNSt8weak_ptrI6node_tEaSIS0_EENSt9enable_ifIXsrSt13is_assignableIRSt10__weak_ptrIS0_LN9__gnu_cxx12_Lock_policyE2EERKSt10shared_ptrIT_EE5valueERS1_E4typeESE_>:
	operator=(const shared_ptr<_Yp>& __r) noexcept
    7abc:	f3 0f 1e fa          	endbr64
    7ac0:	55                   	push   %rbp
    7ac1:	48 89 e5             	mov    %rsp,%rbp
    7ac4:	48 83 ec 10          	sub    $0x10,%rsp
    7ac8:	48 89 7d f8          	mov    %rdi,-0x8(%rbp)
    7acc:	48 89 75 f0          	mov    %rsi,-0x10(%rbp)
	  this->__weak_ptr<_Tp>::operator=(__r);
    7ad0:	48 8b 45 f8          	mov    -0x8(%rbp),%rax
    7ad4:	48 8b 55 f0          	mov    -0x10(%rbp),%rdx
    7ad8:	48 89 d6             	mov    %rdx,%rsi
    7adb:	48 89 c7             	mov    %rax,%rdi
    7ade:	e8 71 11 00 00       	call   8c54 <_ZNSt10__weak_ptrI6node_tLN9__gnu_cxx12_Lock_policyE2EEaSIS0_EENSt9enable_ifIXsrSt20__sp_compatible_withIPT_PS0_E5valueERS3_E4typeERKSt12__shared_ptrIS7_LS2_2EE>
	  return *this;
    7ae3:	48 8b 45 f8          	mov    -0x8(%rbp),%rax
	}
    7ae7:	c9                   	leave
    7ae8:	c3                   	ret
    7ae9:	90                   	nop

0000000000007aea <_ZNKSt19__shared_ptr_accessI7model_tLN9__gnu_cxx12_Lock_policyE2ELb0ELb0EEptEv>:
      operator->() const noexcept
    7aea:	f3 0f 1e fa          	endbr64
    7aee:	55                   	push   %rbp
    7aef:	48 89 e5             	mov    %rsp,%rbp
    7af2:	48 83 ec 10          	sub    $0x10,%rsp
    7af6:	48 89 7d f8          	mov    %rdi,-0x8(%rbp)
	return _M_get();
    7afa:	48 8b 45 f8          	mov    -0x8(%rbp),%rax
    7afe:	48 89 c7             	mov    %rax,%rdi
    7b01:	e8 92 11 00 00       	call   8c98 <_ZNKSt19__shared_ptr_accessI7model_tLN9__gnu_cxx12_Lock_policyE2ELb0ELb0EE6_M_getEv>
      }
    7b06:	c9                   	leave
    7b07:	c3                   	ret

0000000000007b08 <_ZNSt14__shared_countILN9__gnu_cxx12_Lock_policyE2EEaSERKS2_>:
      operator=(const __shared_count& __r) noexcept
    7b08:	f3 0f 1e fa          	endbr64
    7b0c:	55                   	push   %rbp
    7b0d:	48 89 e5             	mov    %rsp,%rbp
    7b10:	48 83 ec 20          	sub    $0x20,%rsp
    7b14:	48 89 7d e8          	mov    %rdi,-0x18(%rbp)
    7b18:	48 89 75 e0          	mov    %rsi,-0x20(%rbp)
	_Sp_counted_base<_Lp>* __tmp = __r._M_pi;
    7b1c:	48 8b 45 e0          	mov    -0x20(%rbp),%rax
    7b20:	48 8b 00             	mov    (%rax),%rax
    7b23:	48 89 45 f8          	mov    %rax,-0x8(%rbp)
	if (__tmp != _M_pi)
    7b27:	48 8b 45 e8          	mov    -0x18(%rbp),%rax
    7b2b:	48 8b 00             	mov    (%rax),%rax
    7b2e:	48 39 45 f8          	cmp    %rax,-0x8(%rbp)
    7b32:	74 39                	je     7b6d <_ZNSt14__shared_countILN9__gnu_cxx12_Lock_policyE2EEaSERKS2_+0x65>
	    if (__tmp != nullptr)
    7b34:	48 83 7d f8 00       	cmpq   $0x0,-0x8(%rbp)
    7b39:	74 0c                	je     7b47 <_ZNSt14__shared_countILN9__gnu_cxx12_Lock_policyE2EEaSERKS2_+0x3f>
	      __tmp->_M_add_ref_copy();
    7b3b:	48 8b 45 f8          	mov    -0x8(%rbp),%rax
    7b3f:	48 89 c7             	mov    %rax,%rdi
    7b42:	e8 6f 11 00 00       	call   8cb6 <_ZNSt16_Sp_counted_baseILN9__gnu_cxx12_Lock_policyE2EE15_M_add_ref_copyEv>
	    if (_M_pi != nullptr)
    7b47:	48 8b 45 e8          	mov    -0x18(%rbp),%rax
    7b4b:	48 8b 00             	mov    (%rax),%rax
    7b4e:	48 85 c0             	test   %rax,%rax
    7b51:	74 0f                	je     7b62 <_ZNSt14__shared_countILN9__gnu_cxx12_Lock_policyE2EEaSERKS2_+0x5a>
	      _M_pi->_M_release();
    7b53:	48 8b 45 e8          	mov    -0x18(%rbp),%rax
    7b57:	48 8b 00             	mov    (%rax),%rax
    7b5a:	48 89 c7             	mov    %rax,%rdi
    7b5d:	e8 0c f0 ff ff       	call   6b6e <_ZNSt16_Sp_counted_baseILN9__gnu_cxx12_Lock_policyE2EE10_M_releaseEv>
	    _M_pi = __tmp;
    7b62:	48 8b 45 e8          	mov    -0x18(%rbp),%rax
    7b66:	48 8b 55 f8          	mov    -0x8(%rbp),%rdx
    7b6a:	48 89 10             	mov    %rdx,(%rax)
	return *this;
    7b6d:	48 8b 45 e8          	mov    -0x18(%rbp),%rax
      }
    7b71:	c9                   	leave
    7b72:	c3                   	ret
    7b73:	90                   	nop

0000000000007b74 <_ZNSt10shared_ptrI7model_tEC1EOS1_>:
      shared_ptr(shared_ptr&& __r) noexcept
    7b74:	f3 0f 1e fa          	endbr64
    7b78:	55                   	push   %rbp
    7b79:	48 89 e5             	mov    %rsp,%rbp
    7b7c:	53                   	push   %rbx
    7b7d:	48 83 ec 18          	sub    $0x18,%rsp
    7b81:	48 89 7d e8          	mov    %rdi,-0x18(%rbp)
    7b85:	48 89 75 e0          	mov    %rsi,-0x20(%rbp)
      : __shared_ptr<_Tp>(std::move(__r)) { }
    7b89:	48 8b 5d e8          	mov    -0x18(%rbp),%rbx
    7b8d:	48 8b 45 e0          	mov    -0x20(%rbp),%rax
    7b91:	48 89 c7             	mov    %rax,%rdi
    7b94:	e8 8a 11 00 00       	call   8d23 <_ZSt4moveIRSt10shared_ptrI7model_tEEONSt16remove_referenceIT_E4typeEOS5_>
    7b99:	48 89 c6             	mov    %rax,%rsi
    7b9c:	48 89 df             	mov    %rbx,%rdi
    7b9f:	e8 92 11 00 00       	call   8d36 <_ZNSt12__shared_ptrI7model_tLN9__gnu_cxx12_Lock_policyE2EEC1EOS3_>
    7ba4:	90                   	nop
    7ba5:	48 8b 5d f8          	mov    -0x8(%rbp),%rbx
    7ba9:	c9                   	leave
    7baa:	c3                   	ret
    7bab:	90                   	nop

0000000000007bac <_ZNSt12__weak_countILN9__gnu_cxx12_Lock_policyE2EEaSERKS2_>:
      operator=(const __weak_count& __r) noexcept
    7bac:	f3 0f 1e fa          	endbr64
    7bb0:	55                   	push   %rbp
    7bb1:	48 89 e5             	mov    %rsp,%rbp
    7bb4:	48 83 ec 20          	sub    $0x20,%rsp
    7bb8:	48 89 7d e8          	mov    %rdi,-0x18(%rbp)
    7bbc:	48 89 75 e0          	mov    %rsi,-0x20(%rbp)
	_Sp_counted_base<_Lp>* __tmp = __r._M_pi;
    7bc0:	48 8b 45 e0          	mov    -0x20(%rbp),%rax
    7bc4:	48 8b 00             	mov    (%rax),%rax
    7bc7:	48 89 45 f8          	mov    %rax,-0x8(%rbp)
	if (__tmp != nullptr)
    7bcb:	48 83 7d f8 00       	cmpq   $0x0,-0x8(%rbp)
    7bd0:	74 0c                	je     7bde <_ZNSt12__weak_countILN9__gnu_cxx12_Lock_policyE2EEaSERKS2_+0x32>
	  __tmp->_M_weak_add_ref();
    7bd2:	48 8b 45 f8          	mov    -0x8(%rbp),%rax
    7bd6:	48 89 c7             	mov    %rax,%rdi
    7bd9:	e8 b4 11 00 00       	call   8d92 <_ZNSt16_Sp_counted_baseILN9__gnu_cxx12_Lock_policyE2EE15_M_weak_add_refEv>
	if (_M_pi != nullptr)
    7bde:	48 8b 45 e8          	mov    -0x18(%rbp),%rax
    7be2:	48 8b 00             	mov    (%rax),%rax
    7be5:	48 85 c0             	test   %rax,%rax
    7be8:	74 0f                	je     7bf9 <_ZNSt12__weak_countILN9__gnu_cxx12_Lock_policyE2EEaSERKS2_+0x4d>
	  _M_pi->_M_weak_release();
    7bea:	48 8b 45 e8          	mov    -0x18(%rbp),%rax
    7bee:	48 8b 00             	mov    (%rax),%rax
    7bf1:	48 89 c7             	mov    %rax,%rdi
    7bf4:	e8 4b 0e 00 00       	call   8a44 <_ZNSt16_Sp_counted_baseILN9__gnu_cxx12_Lock_policyE2EE15_M_weak_releaseEv>
	_M_pi = __tmp;
    7bf9:	48 8b 45 e8          	mov    -0x18(%rbp),%rax
    7bfd:	48 8b 55 f8          	mov    -0x8(%rbp),%rdx
    7c01:	48 89 10             	mov    %rdx,(%rax)
	return *this;
    7c04:	48 8b 45 e8          	mov    -0x18(%rbp),%rax
      }
    7c08:	c9                   	leave
    7c09:	c3                   	ret

0000000000007c0a <_ZNSt16_Sp_counted_baseILN9__gnu_cxx12_Lock_policyE2EED1Ev>:
      ~_Sp_counted_base() noexcept
    7c0a:	f3 0f 1e fa          	endbr64
    7c0e:	55                   	push   %rbp
    7c0f:	48 89 e5             	mov    %rsp,%rbp
    7c12:	48 89 7d f8          	mov    %rdi,-0x8(%rbp)
      { }
    7c16:	48 8d 15 73 dd 02 00 	lea    0x2dd73(%rip),%rdx        # 35990 <_ZTVSt16_Sp_counted_baseILN9__gnu_cxx12_Lock_policyE2EE+0x10>
    7c1d:	48 8b 45 f8          	mov    -0x8(%rbp),%rax
    7c21:	48 89 10             	mov    %rdx,(%rax)
    7c24:	90                   	nop
    7c25:	5d                   	pop    %rbp
    7c26:	c3                   	ret
    7c27:	90                   	nop

0000000000007c28 <_ZNSt16_Sp_counted_baseILN9__gnu_cxx12_Lock_policyE2EED0Ev>:
      ~_Sp_counted_base() noexcept
    7c28:	f3 0f 1e fa          	endbr64
    7c2c:	55                   	push   %rbp
    7c2d:	48 89 e5             	mov    %rsp,%rbp
    7c30:	48 83 ec 10          	sub    $0x10,%rsp
    7c34:	48 89 7d f8          	mov    %rdi,-0x8(%rbp)
      { }
    7c38:	48 8b 45 f8          	mov    -0x8(%rbp),%rax
    7c3c:	48 89 c7             	mov    %rax,%rdi
    7c3f:	e8 c6 ff ff ff       	call   7c0a <_ZNSt16_Sp_counted_baseILN9__gnu_cxx12_Lock_policyE2EED1Ev>
    7c44:	48 8b 45 f8          	mov    -0x8(%rbp),%rax
    7c48:	be 10 00 00 00       	mov    $0x10,%esi
    7c4d:	48 89 c7             	mov    %rax,%rdi
    7c50:	e8 9b dc ff ff       	call   58f0 <_ZdlPvm@plt>
    7c55:	c9                   	leave
    7c56:	c3                   	ret
    7c57:	90                   	nop

0000000000007c58 <_ZNSt16_Sp_counted_baseILN9__gnu_cxx12_Lock_policyE2EE19_M_release_last_useEv>:
      _M_release_last_use() noexcept
    7c58:	f3 0f 1e fa          	endbr64
    7c5c:	55                   	push   %rbp
    7c5d:	48 89 e5             	mov    %rsp,%rbp
    7c60:	48 83 ec 40          	sub    $0x40,%rsp
    7c64:	48 89 7d c8          	mov    %rdi,-0x38(%rbp)
	_M_dispose();
    7c68:	48 8b 45 c8          	mov    -0x38(%rbp),%rax
    7c6c:	48 8b 00             	mov    (%rax),%rax
    7c6f:	48 83 c0 10          	add    $0x10,%rax
    7c73:	48 8b 10             	mov    (%rax),%rdx
    7c76:	48 8b 45 c8          	mov    -0x38(%rbp),%rax
    7c7a:	48 89 c7             	mov    %rax,%rdi
    7c7d:	ff d2                	call   *%rdx
	if (__gnu_cxx::__exchange_and_add_dispatch(&_M_weak_count,
    7c7f:	48 8b 45 c8          	mov    -0x38(%rbp),%rax
    7c83:	48 83 c0 0c          	add    $0xc,%rax
    7c87:	48 89 45 e8          	mov    %rax,-0x18(%rbp)
    7c8b:	c7 45 d8 ff ff ff ff 	movl   $0xffffffff,-0x28(%rbp)
    return ::__libc_single_threaded;
    7c92:	0f b6 05 a7 e4 02 00 	movzbl 0x2e4a7(%rip),%eax        # 36140 <__libc_single_threaded@GLIBC_2.32>
    7c99:	84 c0                	test   %al,%al
    7c9b:	0f 95 c0             	setne  %al
    if (__is_single_threaded())
    7c9e:	84 c0                	test   %al,%al
    7ca0:	74 2d                	je     7ccf <_ZNSt16_Sp_counted_baseILN9__gnu_cxx12_Lock_policyE2EE19_M_release_last_useEv+0x77>
    7ca2:	48 8b 45 e8          	mov    -0x18(%rbp),%rax
    7ca6:	48 89 45 f0          	mov    %rax,-0x10(%rbp)
    7caa:	8b 45 d8             	mov    -0x28(%rbp),%eax
    7cad:	89 45 dc             	mov    %eax,-0x24(%rbp)
    _Atomic_word __result = *__mem;
    7cb0:	48 8b 45 f0          	mov    -0x10(%rbp),%rax
    7cb4:	8b 00                	mov    (%rax),%eax
    7cb6:	89 45 e0             	mov    %eax,-0x20(%rbp)
    *__mem += __val;
    7cb9:	48 8b 45 f0          	mov    -0x10(%rbp),%rax
    7cbd:	8b 10                	mov    (%rax),%edx
    7cbf:	8b 45 dc             	mov    -0x24(%rbp),%eax
    7cc2:	01 c2                	add    %eax,%edx
    7cc4:	48 8b 45 f0          	mov    -0x10(%rbp),%rax
    7cc8:	89 10                	mov    %edx,(%rax)
    return __result;
    7cca:	8b 45 e0             	mov    -0x20(%rbp),%eax
      return __exchange_and_add_single(__mem, __val);
    7ccd:	eb 1c                	jmp    7ceb <_ZNSt16_Sp_counted_baseILN9__gnu_cxx12_Lock_policyE2EE19_M_release_last_useEv+0x93>
    7ccf:	48 8b 45 e8          	mov    -0x18(%rbp),%rax
    7cd3:	48 89 45 f8          	mov    %rax,-0x8(%rbp)
    7cd7:	8b 45 d8             	mov    -0x28(%rbp),%eax
    7cda:	89 45 e4             	mov    %eax,-0x1c(%rbp)
  { return __atomic_fetch_add(__mem, __val, __ATOMIC_ACQ_REL); }
    7cdd:	8b 55 e4             	mov    -0x1c(%rbp),%edx
    7ce0:	48 8b 45 f8          	mov    -0x8(%rbp),%rax
    7ce4:	f0 0f c1 10          	lock xadd %edx,(%rax)
    7ce8:	89 d0                	mov    %edx,%eax
      return __exchange_and_add(__mem, __val);
    7cea:	90                   	nop
						   -1) == 1)
    7ceb:	83 f8 01             	cmp    $0x1,%eax
    7cee:	0f 94 c0             	sete   %al
	if (__gnu_cxx::__exchange_and_add_dispatch(&_M_weak_count,
    7cf1:	84 c0                	test   %al,%al
    7cf3:	74 17                	je     7d0c <_ZNSt16_Sp_counted_baseILN9__gnu_cxx12_Lock_policyE2EE19_M_release_last_useEv+0xb4>
	    _M_destroy();
    7cf5:	48 8b 45 c8          	mov    -0x38(%rbp),%rax
    7cf9:	48 8b 00             	mov    (%rax),%rax
    7cfc:	48 83 c0 18          	add    $0x18,%rax
    7d00:	48 8b 10             	mov    (%rax),%rdx
    7d03:	48 8b 45 c8          	mov    -0x38(%rbp),%rax
    7d07:	48 89 c7             	mov    %rax,%rdi
    7d0a:	ff d2                	call   *%rdx
      }
    7d0c:	90                   	nop
    7d0d:	c9                   	leave
    7d0e:	c3                   	ret
    7d0f:	90                   	nop

0000000000007d10 <_ZNSt8_Rb_treeISt10shared_ptrI6node_tESt4pairIKS2_iESt10_Select1stIS5_ESt4lessIS2_ESaIS5_EE4findERS4_>:

  template<typename _Key, typename _Val, typename _KeyOfValue,
	   typename _Compare, typename _Alloc>
    typename _Rb_tree<_Key, _Val, _KeyOfValue,
		      _Compare, _Alloc>::iterator
    _Rb_tree<_Key, _Val, _KeyOfValue, _Compare, _Alloc>::
    7d10:	f3 0f 1e fa          	endbr64
    7d14:	55                   	push   %rbp
    7d15:	48 89 e5             	mov    %rsp,%rbp
    7d18:	53                   	push   %rbx
    7d19:	48 83 ec 38          	sub    $0x38,%rsp
    7d1d:	48 89 7d c8          	mov    %rdi,-0x38(%rbp)
    7d21:	48 89 75 c0          	mov    %rsi,-0x40(%rbp)
    7d25:	64 48 8b 04 25 28 00 	mov    %fs:0x28,%rax
    7d2c:	00 00 
    7d2e:	48 89 45 e8          	mov    %rax,-0x18(%rbp)
    7d32:	31 c0                	xor    %eax,%eax
    find(const _Key& __k)
    {
      iterator __j = _M_lower_bound(_M_begin(), _M_end(), __k);
    7d34:	48 8b 45 c8          	mov    -0x38(%rbp),%rax
    7d38:	48 89 c7             	mov    %rax,%rdi
    7d3b:	e8 c0 10 00 00       	call   8e00 <_ZNSt8_Rb_treeISt10shared_ptrI6node_tESt4pairIKS2_iESt10_Select1stIS5_ESt4lessIS2_ESaIS5_EE6_M_endEv>
    7d40:	48 89 c3             	mov    %rax,%rbx
    7d43:	48 8b 45 c8          	mov    -0x38(%rbp),%rax
    7d47:	48 89 c7             	mov    %rax,%rdi
    7d4a:	e8 1b 08 00 00       	call   856a <_ZNSt8_Rb_treeISt10shared_ptrI6node_tESt4pairIKS2_iESt10_Select1stIS5_ESt4lessIS2_ESaIS5_EE8_M_beginEv>
    7d4f:	48 89 c6             	mov    %rax,%rsi
    7d52:	48 8b 55 c0          	mov    -0x40(%rbp),%rdx
    7d56:	48 8b 45 c8          	mov    -0x38(%rbp),%rax
    7d5a:	48 89 d1             	mov    %rdx,%rcx
    7d5d:	48 89 da             	mov    %rbx,%rdx
    7d60:	48 89 c7             	mov    %rax,%rdi
    7d63:	e8 ae 10 00 00       	call   8e16 <_ZNSt8_Rb_treeISt10shared_ptrI6node_tESt4pairIKS2_iESt10_Select1stIS5_ESt4lessIS2_ESaIS5_EE14_M_lower_boundEPSt13_Rb_tree_nodeIS5_EPSt18_Rb_tree_node_baseRS4_>
    7d68:	48 89 45 d8          	mov    %rax,-0x28(%rbp)
      return (__j == end()
    7d6c:	48 8b 45 c8          	mov    -0x38(%rbp),%rax
    7d70:	48 89 c7             	mov    %rax,%rdi
    7d73:	e8 6e 00 00 00       	call   7de6 <_ZNSt8_Rb_treeISt10shared_ptrI6node_tESt4pairIKS2_iESt10_Select1stIS5_ESt4lessIS2_ESaIS5_EE3endEv>
    7d78:	48 89 45 e0          	mov    %rax,-0x20(%rbp)
    7d7c:	48 8d 55 e0          	lea    -0x20(%rbp),%rdx
    7d80:	48 8d 45 d8          	lea    -0x28(%rbp),%rax
    7d84:	48 89 d6             	mov    %rdx,%rsi
    7d87:	48 89 c7             	mov    %rax,%rdi
    7d8a:	e8 a7 f3 ff ff       	call   7136 <_ZSteqRKSt17_Rb_tree_iteratorISt4pairIKSt10shared_ptrI6node_tEiEES8_>
	      || _M_impl._M_key_compare(__k,
					_S_key(__j._M_node))) ? end() : __j;
    7d8f:	84 c0                	test   %al,%al
    7d91:	75 26                	jne    7db9 <_ZNSt8_Rb_treeISt10shared_ptrI6node_tESt4pairIKS2_iESt10_Select1stIS5_ESt4lessIS2_ESaIS5_EE4findERS4_+0xa9>
	      || _M_impl._M_key_compare(__k,
    7d93:	48 8b 5d c8          	mov    -0x38(%rbp),%rbx
					_S_key(__j._M_node))) ? end() : __j;
    7d97:	48 8b 45 d8          	mov    -0x28(%rbp),%rax
	      || _M_impl._M_key_compare(__k,
    7d9b:	48 89 c7             	mov    %rax,%rdi
    7d9e:	e8 2f 11 00 00       	call   8ed2 <_ZNSt8_Rb_treeISt10shared_ptrI6node_tESt4pairIKS2_iESt10_Select1stIS5_ESt4lessIS2_ESaIS5_EE6_S_keyEPKSt18_Rb_tree_node_base>
    7da3:	48 89 c2             	mov    %rax,%rdx
    7da6:	48 8b 45 c0          	mov    -0x40(%rbp),%rax
    7daa:	48 89 c6             	mov    %rax,%rsi
    7dad:	48 89 df             	mov    %rbx,%rdi
    7db0:	e8 ed 00 00 00       	call   7ea2 <_ZNKSt4lessISt10shared_ptrI6node_tEEclERKS2_S5_>
    7db5:	84 c0                	test   %al,%al
    7db7:	74 0e                	je     7dc7 <_ZNSt8_Rb_treeISt10shared_ptrI6node_tESt4pairIKS2_iESt10_Select1stIS5_ESt4lessIS2_ESaIS5_EE4findERS4_+0xb7>
					_S_key(__j._M_node))) ? end() : __j;
    7db9:	48 8b 45 c8          	mov    -0x38(%rbp),%rax
    7dbd:	48 89 c7             	mov    %rax,%rdi
    7dc0:	e8 21 00 00 00       	call   7de6 <_ZNSt8_Rb_treeISt10shared_ptrI6node_tESt4pairIKS2_iESt10_Select1stIS5_ESt4lessIS2_ESaIS5_EE3endEv>
    7dc5:	eb 04                	jmp    7dcb <_ZNSt8_Rb_treeISt10shared_ptrI6node_tESt4pairIKS2_iESt10_Select1stIS5_ESt4lessIS2_ESaIS5_EE4findERS4_+0xbb>
    7dc7:	48 8b 45 d8          	mov    -0x28(%rbp),%rax
    }
    7dcb:	48 8b 55 e8          	mov    -0x18(%rbp),%rdx
    7dcf:	64 48 2b 14 25 28 00 	sub    %fs:0x28,%rdx
    7dd6:	00 00 
    7dd8:	74 05                	je     7ddf <_ZNSt8_Rb_treeISt10shared_ptrI6node_tESt4pairIKS2_iESt10_Select1stIS5_ESt4lessIS2_ESaIS5_EE4findERS4_+0xcf>
    7dda:	e8 71 db ff ff       	call   5950 <__stack_chk_fail@plt>
    7ddf:	48 8b 5d f8          	mov    -0x8(%rbp),%rbx
    7de3:	c9                   	leave
    7de4:	c3                   	ret
    7de5:	90                   	nop

0000000000007de6 <_ZNSt8_Rb_treeISt10shared_ptrI6node_tESt4pairIKS2_iESt10_Select1stIS5_ESt4lessIS2_ESaIS5_EE3endEv>:
      end() _GLIBCXX_NOEXCEPT
    7de6:	f3 0f 1e fa          	endbr64
    7dea:	55                   	push   %rbp
    7deb:	48 89 e5             	mov    %rsp,%rbp
    7dee:	48 83 ec 20          	sub    $0x20,%rsp
    7df2:	48 89 7d e8          	mov    %rdi,-0x18(%rbp)
    7df6:	64 48 8b 04 25 28 00 	mov    %fs:0x28,%rax
    7dfd:	00 00 
    7dff:	48 89 45 f8          	mov    %rax,-0x8(%rbp)
    7e03:	31 c0                	xor    %eax,%eax
      { return iterator(&this->_M_impl._M_header); }
    7e05:	48 8b 45 e8          	mov    -0x18(%rbp),%rax
    7e09:	48 8d 50 08          	lea    0x8(%rax),%rdx
    7e0d:	48 8d 45 f0          	lea    -0x10(%rbp),%rax
    7e11:	48 89 d6             	mov    %rdx,%rsi
    7e14:	48 89 c7             	mov    %rax,%rdi
    7e17:	e8 d4 10 00 00       	call   8ef0 <_ZNSt17_Rb_tree_iteratorISt4pairIKSt10shared_ptrI6node_tEiEEC1EPSt18_Rb_tree_node_base>
    7e1c:	48 8b 45 f0          	mov    -0x10(%rbp),%rax
    7e20:	48 8b 55 f8          	mov    -0x8(%rbp),%rdx
    7e24:	64 48 2b 14 25 28 00 	sub    %fs:0x28,%rdx
    7e2b:	00 00 
    7e2d:	74 05                	je     7e34 <_ZNSt8_Rb_treeISt10shared_ptrI6node_tESt4pairIKS2_iESt10_Select1stIS5_ESt4lessIS2_ESaIS5_EE3endEv+0x4e>
    7e2f:	e8 1c db ff ff       	call   5950 <__stack_chk_fail@plt>
    7e34:	c9                   	leave
    7e35:	c3                   	ret

0000000000007e36 <_ZNSt3mapISt10shared_ptrI6node_tEiSt4lessIS2_ESaISt4pairIKS2_iEEE11lower_boundERS6_>:
       *  that matches the given key.  If unsuccessful it returns an iterator
       *  pointing to the first element that has a greater value than given key
       *  or end() if no such element exists.
       */
      iterator
      lower_bound(const key_type& __x)
    7e36:	f3 0f 1e fa          	endbr64
    7e3a:	55                   	push   %rbp
    7e3b:	48 89 e5             	mov    %rsp,%rbp
    7e3e:	48 83 ec 10          	sub    $0x10,%rsp
    7e42:	48 89 7d f8          	mov    %rdi,-0x8(%rbp)
    7e46:	48 89 75 f0          	mov    %rsi,-0x10(%rbp)
      { return _M_t.lower_bound(__x); }
    7e4a:	48 8b 45 f8          	mov    -0x8(%rbp),%rax
    7e4e:	48 8b 55 f0          	mov    -0x10(%rbp),%rdx
    7e52:	48 89 d6             	mov    %rdx,%rsi
    7e55:	48 89 c7             	mov    %rax,%rdi
    7e58:	e8 b1 10 00 00       	call   8f0e <_ZNSt8_Rb_treeISt10shared_ptrI6node_tESt4pairIKS2_iESt10_Select1stIS5_ESt4lessIS2_ESaIS5_EE11lower_boundERS4_>
    7e5d:	c9                   	leave
    7e5e:	c3                   	ret
    7e5f:	90                   	nop

0000000000007e60 <_ZNKSt3mapISt10shared_ptrI6node_tEiSt4lessIS2_ESaISt4pairIKS2_iEEE8key_compEv>:
      key_comp() const
    7e60:	f3 0f 1e fa          	endbr64
    7e64:	55                   	push   %rbp
    7e65:	48 89 e5             	mov    %rsp,%rbp
    7e68:	48 83 ec 10          	sub    $0x10,%rsp
    7e6c:	48 89 7d f8          	mov    %rdi,-0x8(%rbp)
      { return _M_t.key_comp(); }
    7e70:	48 8b 45 f8          	mov    -0x8(%rbp),%rax
    7e74:	48 89 c7             	mov    %rax,%rdi
    7e77:	e8 e2 10 00 00       	call   8f5e <_ZNKSt8_Rb_treeISt10shared_ptrI6node_tESt4pairIKS2_iESt10_Select1stIS5_ESt4lessIS2_ESaIS5_EE8key_compEv>
    7e7c:	90                   	nop
    7e7d:	c9                   	leave
    7e7e:	c3                   	ret
    7e7f:	90                   	nop

0000000000007e80 <_ZNKSt17_Rb_tree_iteratorISt4pairIKSt10shared_ptrI6node_tEiEEdeEv>:
      operator*() const _GLIBCXX_NOEXCEPT
    7e80:	f3 0f 1e fa          	endbr64
    7e84:	55                   	push   %rbp
    7e85:	48 89 e5             	mov    %rsp,%rbp
    7e88:	48 83 ec 10          	sub    $0x10,%rsp
    7e8c:	48 89 7d f8          	mov    %rdi,-0x8(%rbp)
      { return *static_cast<_Link_type>(_M_node)->_M_valptr(); }
    7e90:	48 8b 45 f8          	mov    -0x8(%rbp),%rax
    7e94:	48 8b 00             	mov    (%rax),%rax
    7e97:	48 89 c7             	mov    %rax,%rdi
    7e9a:	e8 cf 10 00 00       	call   8f6e <_ZNSt13_Rb_tree_nodeISt4pairIKSt10shared_ptrI6node_tEiEE9_M_valptrEv>
    7e9f:	c9                   	leave
    7ea0:	c3                   	ret
    7ea1:	90                   	nop

0000000000007ea2 <_ZNKSt4lessISt10shared_ptrI6node_tEEclERKS2_S5_>:
  template<typename _Tp>
    struct less : public binary_function<_Tp, _Tp, bool>
    {
      _GLIBCXX14_CONSTEXPR
      bool
      operator()(const _Tp& __x, const _Tp& __y) const
    7ea2:	f3 0f 1e fa          	endbr64
    7ea6:	55                   	push   %rbp
    7ea7:	48 89 e5             	mov    %rsp,%rbp
    7eaa:	48 83 ec 30          	sub    $0x30,%rsp
    7eae:	48 89 7d e8          	mov    %rdi,-0x18(%rbp)
    7eb2:	48 89 75 e0          	mov    %rsi,-0x20(%rbp)
    7eb6:	48 89 55 d8          	mov    %rdx,-0x28(%rbp)
    7eba:	64 48 8b 04 25 28 00 	mov    %fs:0x28,%rax
    7ec1:	00 00 
    7ec3:	48 89 45 f8          	mov    %rax,-0x8(%rbp)
    7ec7:	31 c0                	xor    %eax,%eax
      { return __x < __y; }
    7ec9:	48 8d 45 f7          	lea    -0x9(%rbp),%rax
    7ecd:	be 00 00 00 00       	mov    $0x0,%esi
    7ed2:	48 89 c7             	mov    %rax,%rdi
    7ed5:	e8 ae eb ff ff       	call   6a88 <_ZNSt9__cmp_cat8__unspecC1EPS0_>
    7eda:	48 8b 55 d8          	mov    -0x28(%rbp),%rdx
    7ede:	48 8b 45 e0          	mov    -0x20(%rbp),%rax
    7ee2:	48 89 d6             	mov    %rdx,%rsi
    7ee5:	48 89 c7             	mov    %rax,%rdi
    7ee8:	e8 38 11 00 00       	call   9025 <_ZStssI6node_tS0_ESt15strong_orderingRKSt10shared_ptrIT_ERKS2_IT0_E>
    7eed:	89 c7                	mov    %eax,%edi
    7eef:	e8 a7 eb ff ff       	call   6a9b <_ZStltSt15strong_orderingNSt9__cmp_cat8__unspecE>
    7ef4:	48 8b 55 f8          	mov    -0x8(%rbp),%rdx
    7ef8:	64 48 2b 14 25 28 00 	sub    %fs:0x28,%rdx
    7eff:	00 00 
    7f01:	74 05                	je     7f08 <_ZNKSt4lessISt10shared_ptrI6node_tEEclERKS2_S5_+0x66>
    7f03:	e8 48 da ff ff       	call   5950 <__stack_chk_fail@plt>
    7f08:	c9                   	leave
    7f09:	c3                   	ret

0000000000007f0a <_ZNSt5tupleIJRKSt10shared_ptrI6node_tEEEC1ILb1ELb1EEES4_>:
	: _Inherited() { }

      template<bool _NotEmpty = (sizeof...(_Elements) >= 1),
	       _ImplicitCtor<_NotEmpty, const _Elements&...> = true>
	constexpr
	tuple(const _Elements&... __elements)
    7f0a:	f3 0f 1e fa          	endbr64
    7f0e:	55                   	push   %rbp
    7f0f:	48 89 e5             	mov    %rsp,%rbp
    7f12:	48 83 ec 10          	sub    $0x10,%rsp
    7f16:	48 89 7d f8          	mov    %rdi,-0x8(%rbp)
    7f1a:	48 89 75 f0          	mov    %rsi,-0x10(%rbp)
	noexcept(__nothrow_constructible<const _Elements&...>())
	: _Inherited(__elements...) { }
    7f1e:	48 8b 45 f8          	mov    -0x8(%rbp),%rax
    7f22:	48 8b 55 f0          	mov    -0x10(%rbp),%rdx
    7f26:	48 89 d6             	mov    %rdx,%rsi
    7f29:	48 89 c7             	mov    %rax,%rdi
    7f2c:	e8 65 11 00 00       	call   9096 <_ZNSt11_Tuple_implILm0EJRKSt10shared_ptrI6node_tEEEC1ES4_>
    7f31:	90                   	nop
    7f32:	c9                   	leave
    7f33:	c3                   	ret

0000000000007f34 <_ZNSt23_Rb_tree_const_iteratorISt4pairIKSt10shared_ptrI6node_tEiEEC1ERKSt17_Rb_tree_iteratorIS5_E>:
      _Rb_tree_const_iterator(const iterator& __it) _GLIBCXX_NOEXCEPT
    7f34:	f3 0f 1e fa          	endbr64
    7f38:	55                   	push   %rbp
    7f39:	48 89 e5             	mov    %rsp,%rbp
    7f3c:	48 89 7d f8          	mov    %rdi,-0x8(%rbp)
    7f40:	48 89 75 f0          	mov    %rsi,-0x10(%rbp)
      : _M_node(__it._M_node) { }
    7f44:	48 8b 45 f0          	mov    -0x10(%rbp),%rax
    7f48:	48 8b 10             	mov    (%rax),%rdx
    7f4b:	48 8b 45 f8          	mov    -0x8(%rbp),%rax
    7f4f:	48 89 10             	mov    %rdx,(%rax)
    7f52:	90                   	nop
    7f53:	5d                   	pop    %rbp
    7f54:	c3                   	ret
    7f55:	90                   	nop

0000000000007f56 <_ZNSt8_Rb_treeISt10shared_ptrI6node_tESt4pairIKS2_iESt10_Select1stIS5_ESt4lessIS2_ESaIS5_EE22_M_emplace_hint_uniqueIJRKSt21piecewise_construct_tSt5tupleIJRS4_EESG_IJEEEEESt17_Rb_tree_iteratorIS5_ESt23_Rb_tree_const_iteratorIS5_EDpOT_>:
      _Rb_tree<_Key, _Val, _KeyOfValue, _Compare, _Alloc>::
    7f56:	f3 0f 1e fa          	endbr64
    7f5a:	55                   	push   %rbp
    7f5b:	48 89 e5             	mov    %rsp,%rbp
    7f5e:	41 54                	push   %r12
    7f60:	53                   	push   %rbx
    7f61:	48 83 ec 70          	sub    $0x70,%rsp
    7f65:	48 89 7d a8          	mov    %rdi,-0x58(%rbp)
    7f69:	48 89 75 a0          	mov    %rsi,-0x60(%rbp)
    7f6d:	48 89 55 98          	mov    %rdx,-0x68(%rbp)
    7f71:	48 89 4d 90          	mov    %rcx,-0x70(%rbp)
    7f75:	4c 89 45 88          	mov    %r8,-0x78(%rbp)
    7f79:	64 48 8b 04 25 28 00 	mov    %fs:0x28,%rax
    7f80:	00 00 
    7f82:	48 89 45 e8          	mov    %rax,-0x18(%rbp)
    7f86:	31 c0                	xor    %eax,%eax
	_Auto_node __z(*this, std::forward<_Args>(__args)...);
    7f88:	48 8b 45 88          	mov    -0x78(%rbp),%rax
    7f8c:	48 89 c7             	mov    %rax,%rdi
    7f8f:	e8 50 11 00 00       	call   90e4 <_ZSt7forwardISt5tupleIJEEEOT_RNSt16remove_referenceIS2_E4typeE>
    7f94:	49 89 c4             	mov    %rax,%r12
    7f97:	48 8b 45 90          	mov    -0x70(%rbp),%rax
    7f9b:	48 89 c7             	mov    %rax,%rdi
    7f9e:	e8 2f 11 00 00       	call   90d2 <_ZSt7forwardISt5tupleIJRKSt10shared_ptrI6node_tEEEEOT_RNSt16remove_referenceIS7_E4typeE>
    7fa3:	48 89 c3             	mov    %rax,%rbx
    7fa6:	48 8b 45 98          	mov    -0x68(%rbp),%rax
    7faa:	48 89 c7             	mov    %rax,%rdi
    7fad:	e8 0e 11 00 00       	call   90c0 <_ZSt7forwardIRKSt21piecewise_construct_tEOT_RNSt16remove_referenceIS3_E4typeE>
    7fb2:	48 89 c2             	mov    %rax,%rdx
    7fb5:	48 8b 75 a8          	mov    -0x58(%rbp),%rsi
    7fb9:	48 8d 45 c0          	lea    -0x40(%rbp),%rax
    7fbd:	4d 89 e0             	mov    %r12,%r8
    7fc0:	48 89 d9             	mov    %rbx,%rcx
    7fc3:	48 89 c7             	mov    %rax,%rdi
    7fc6:	e8 2b 11 00 00       	call   90f6 <_ZNSt8_Rb_treeISt10shared_ptrI6node_tESt4pairIKS2_iESt10_Select1stIS5_ESt4lessIS2_ESaIS5_EE10_Auto_nodeC1IJRKSt21piecewise_construct_tSt5tupleIJRS4_EESH_IJEEEEERSB_DpOT_>
	auto __res = _M_get_insert_hint_unique_pos(__pos, __z._M_key());
    7fcb:	48 8d 45 c0          	lea    -0x40(%rbp),%rax
    7fcf:	48 89 c7             	mov    %rax,%rdi
    7fd2:	e8 81 15 00 00       	call   9558 <_ZNKSt8_Rb_treeISt10shared_ptrI6node_tESt4pairIKS2_iESt10_Select1stIS5_ESt4lessIS2_ESaIS5_EE10_Auto_node6_M_keyEv>
    7fd7:	48 89 c2             	mov    %rax,%rdx
    7fda:	48 8b 4d a0          	mov    -0x60(%rbp),%rcx
    7fde:	48 8b 45 a8          	mov    -0x58(%rbp),%rax
    7fe2:	48 89 ce             	mov    %rcx,%rsi
    7fe5:	48 89 c7             	mov    %rax,%rdi
    7fe8:	e8 c3 11 00 00       	call   91b0 <_ZNSt8_Rb_treeISt10shared_ptrI6node_tESt4pairIKS2_iESt10_Select1stIS5_ESt4lessIS2_ESaIS5_EE29_M_get_insert_hint_unique_posESt23_Rb_tree_const_iteratorIS5_ERS4_>
    7fed:	48 89 45 d0          	mov    %rax,-0x30(%rbp)
    7ff1:	48 89 55 d8          	mov    %rdx,-0x28(%rbp)
	if (__res.second)
    7ff5:	48 8b 45 d8          	mov    -0x28(%rbp),%rax
    7ff9:	48 85 c0             	test   %rax,%rax
    7ffc:	74 1c                	je     801a <_ZNSt8_Rb_treeISt10shared_ptrI6node_tESt4pairIKS2_iESt10_Select1stIS5_ESt4lessIS2_ESaIS5_EE22_M_emplace_hint_uniqueIJRKSt21piecewise_construct_tSt5tupleIJRS4_EESG_IJEEEEESt17_Rb_tree_iteratorIS5_ESt23_Rb_tree_const_iteratorIS5_EDpOT_+0xc4>
	  return __z._M_insert(__res);
    7ffe:	48 8b 4d d0          	mov    -0x30(%rbp),%rcx
    8002:	48 8b 55 d8          	mov    -0x28(%rbp),%rdx
    8006:	48 8d 45 c0          	lea    -0x40(%rbp),%rax
    800a:	48 89 ce             	mov    %rcx,%rsi
    800d:	48 89 c7             	mov    %rax,%rdi
    8010:	e8 65 15 00 00       	call   957a <_ZNSt8_Rb_treeISt10shared_ptrI6node_tESt4pairIKS2_iESt10_Select1stIS5_ESt4lessIS2_ESaIS5_EE10_Auto_node9_M_insertES3_IPSt18_Rb_tree_node_baseSE_E>
    8015:	48 89 c3             	mov    %rax,%rbx
    8018:	eb 17                	jmp    8031 <_ZNSt8_Rb_treeISt10shared_ptrI6node_tESt4pairIKS2_iESt10_Select1stIS5_ESt4lessIS2_ESaIS5_EE22_M_emplace_hint_uniqueIJRKSt21piecewise_construct_tSt5tupleIJRS4_EESG_IJEEEEESt17_Rb_tree_iteratorIS5_ESt23_Rb_tree_const_iteratorIS5_EDpOT_+0xdb>
	return iterator(__res.first);
    801a:	48 8b 55 d0          	mov    -0x30(%rbp),%rdx
    801e:	48 8d 45 b8          	lea    -0x48(%rbp),%rax
    8022:	48 89 d6             	mov    %rdx,%rsi
    8025:	48 89 c7             	mov    %rax,%rdi
    8028:	e8 c3 0e 00 00       	call   8ef0 <_ZNSt17_Rb_tree_iteratorISt4pairIKSt10shared_ptrI6node_tEiEEC1EPSt18_Rb_tree_node_base>
    802d:	48 8b 5d b8          	mov    -0x48(%rbp),%rbx
      }
    8031:	48 8d 45 c0          	lea    -0x40(%rbp),%rax
    8035:	48 89 c7             	mov    %rax,%rdi
    8038:	e8 39 11 00 00       	call   9176 <_ZNSt8_Rb_treeISt10shared_ptrI6node_tESt4pairIKS2_iESt10_Select1stIS5_ESt4lessIS2_ESaIS5_EE10_Auto_nodeD1Ev>
    803d:	48 89 d8             	mov    %rbx,%rax
    8040:	48 8b 55 e8          	mov    -0x18(%rbp),%rdx
    8044:	64 48 2b 14 25 28 00 	sub    %fs:0x28,%rdx
    804b:	00 00 
    804d:	74 25                	je     8074 <_ZNSt8_Rb_treeISt10shared_ptrI6node_tESt4pairIKS2_iESt10_Select1stIS5_ESt4lessIS2_ESaIS5_EE22_M_emplace_hint_uniqueIJRKSt21piecewise_construct_tSt5tupleIJRS4_EESG_IJEEEEESt17_Rb_tree_iteratorIS5_ESt23_Rb_tree_const_iteratorIS5_EDpOT_+0x11e>
    804f:	eb 1e                	jmp    806f <_ZNSt8_Rb_treeISt10shared_ptrI6node_tESt4pairIKS2_iESt10_Select1stIS5_ESt4lessIS2_ESaIS5_EE22_M_emplace_hint_uniqueIJRKSt21piecewise_construct_tSt5tupleIJRS4_EESG_IJEEEEESt17_Rb_tree_iteratorIS5_ESt23_Rb_tree_const_iteratorIS5_EDpOT_+0x119>
    8051:	f3 0f 1e fa          	endbr64
    8055:	48 89 c3             	mov    %rax,%rbx
    8058:	48 8d 45 c0          	lea    -0x40(%rbp),%rax
    805c:	48 89 c7             	mov    %rax,%rdi
    805f:	e8 12 11 00 00       	call   9176 <_ZNSt8_Rb_treeISt10shared_ptrI6node_tESt4pairIKS2_iESt10_Select1stIS5_ESt4lessIS2_ESaIS5_EE10_Auto_nodeD1Ev>
    8064:	48 89 d8             	mov    %rbx,%rax
    8067:	48 89 c7             	mov    %rax,%rdi
    806a:	e8 b1 da ff ff       	call   5b20 <_Unwind_Resume@plt>
    806f:	e8 dc d8 ff ff       	call   5950 <__stack_chk_fail@plt>
    8074:	48 83 c4 70          	add    $0x70,%rsp
    8078:	5b                   	pop    %rbx
    8079:	41 5c                	pop    %r12
    807b:	5d                   	pop    %rbp
    807c:	c3                   	ret
    807d:	90                   	nop

000000000000807e <_ZNKSt19__shared_ptr_accessI6node_tLN9__gnu_cxx12_Lock_policyE2ELb0ELb0EE6_M_getEv>:
      _M_get() const noexcept
    807e:	f3 0f 1e fa          	endbr64
    8082:	55                   	push   %rbp
    8083:	48 89 e5             	mov    %rsp,%rbp
    8086:	48 83 ec 10          	sub    $0x10,%rsp
    808a:	48 89 7d f8          	mov    %rdi,-0x8(%rbp)
      { return static_cast<const __shared_ptr<_Tp, _Lp>*>(this)->get(); }
    808e:	48 8b 45 f8          	mov    -0x8(%rbp),%rax
    8092:	48 89 c7             	mov    %rax,%rdi
    8095:	e8 5c 15 00 00       	call   95f6 <_ZNKSt12__shared_ptrI6node_tLN9__gnu_cxx12_Lock_policyE2EE3getEv>
    809a:	c9                   	leave
    809b:	c3                   	ret

000000000000809c <_ZN9__gnu_cxx17__normal_iteratorIPSt10shared_ptrI6node_tESt6vectorIS3_SaIS3_EEEC1ERKS4_>:
      __normal_iterator(const _Iterator& __i) _GLIBCXX_NOEXCEPT
    809c:	f3 0f 1e fa          	endbr64
    80a0:	55                   	push   %rbp
    80a1:	48 89 e5             	mov    %rsp,%rbp
    80a4:	48 89 7d f8          	mov    %rdi,-0x8(%rbp)
    80a8:	48 89 75 f0          	mov    %rsi,-0x10(%rbp)
      : _M_current(__i) { }
    80ac:	48 8b 45 f0          	mov    -0x10(%rbp),%rax
    80b0:	48 8b 10             	mov    (%rax),%rdx
    80b3:	48 8b 45 f8          	mov    -0x8(%rbp),%rax
    80b7:	48 89 10             	mov    %rdx,(%rax)
    80ba:	90                   	nop
    80bb:	5d                   	pop    %rbp
    80bc:	c3                   	ret

00000000000080bd <_ZNSt16allocator_traitsISaIiEE9constructIiJRKiEEEvRS0_PT_DpOT0_>:
       *  in C++11, C++14 and C++17. Changed in C++20 to call
       *  `std::construct_at(__p, std::forward<_Args>(__args)...)` instead.
      */
      template<typename _Up, typename... _Args>
	static _GLIBCXX20_CONSTEXPR void
	construct(allocator_type& __a __attribute__((__unused__)), _Up* __p,
    80bd:	f3 0f 1e fa          	endbr64
    80c1:	55                   	push   %rbp
    80c2:	48 89 e5             	mov    %rsp,%rbp
    80c5:	48 83 ec 20          	sub    $0x20,%rsp
    80c9:	48 89 7d f8          	mov    %rdi,-0x8(%rbp)
    80cd:	48 89 75 f0          	mov    %rsi,-0x10(%rbp)
    80d1:	48 89 55 e8          	mov    %rdx,-0x18(%rbp)
	noexcept(std::is_nothrow_constructible<_Up, _Args...>::value)
	{
#if __cplusplus <= 201703L
	  __a.construct(__p, std::forward<_Args>(__args)...);
#else
	  std::construct_at(__p, std::forward<_Args>(__args)...);
    80d5:	48 8b 45 e8          	mov    -0x18(%rbp),%rax
    80d9:	48 89 c7             	mov    %rax,%rdi
    80dc:	e8 2a 15 00 00       	call   960b <_ZSt7forwardIRKiEOT_RNSt16remove_referenceIS2_E4typeE>
    80e1:	48 89 c2             	mov    %rax,%rdx
    80e4:	48 8b 45 f0          	mov    -0x10(%rbp),%rax
    80e8:	48 89 d6             	mov    %rdx,%rsi
    80eb:	48 89 c7             	mov    %rax,%rdi
    80ee:	e8 2a 15 00 00       	call   961d <_ZSt12construct_atIiJRKiEEDTgsnwcvPvLi0E_T_pispcl7declvalIT0_EEEEPS3_DpOS4_>
#endif
	}
    80f3:	90                   	nop
    80f4:	c9                   	leave
    80f5:	c3                   	ret

00000000000080f6 <_ZNSt6vectorIiSaIiEE3endEv>:
      end() _GLIBCXX_NOEXCEPT
    80f6:	f3 0f 1e fa          	endbr64
    80fa:	55                   	push   %rbp
    80fb:	48 89 e5             	mov    %rsp,%rbp
    80fe:	48 83 ec 20          	sub    $0x20,%rsp
    8102:	48 89 7d e8          	mov    %rdi,-0x18(%rbp)
    8106:	64 48 8b 04 25 28 00 	mov    %fs:0x28,%rax
    810d:	00 00 
    810f:	48 89 45 f8          	mov    %rax,-0x8(%rbp)
    8113:	31 c0                	xor    %eax,%eax
      { return iterator(this->_M_impl._M_finish); }
    8115:	48 8b 45 e8          	mov    -0x18(%rbp),%rax
    8119:	48 8d 50 08          	lea    0x8(%rax),%rdx
    811d:	48 8d 45 f0          	lea    -0x10(%rbp),%rax
    8121:	48 89 d6             	mov    %rdx,%rsi
    8124:	48 89 c7             	mov    %rax,%rdi
    8127:	e8 34 15 00 00       	call   9660 <_ZN9__gnu_cxx17__normal_iteratorIPiSt6vectorIiSaIiEEEC1ERKS1_>
    812c:	48 8b 45 f0          	mov    -0x10(%rbp),%rax
    8130:	48 8b 55 f8          	mov    -0x8(%rbp),%rdx
    8134:	64 48 2b 14 25 28 00 	sub    %fs:0x28,%rdx
    813b:	00 00 
    813d:	74 05                	je     8144 <_ZNSt6vectorIiSaIiEE3endEv+0x4e>
    813f:	e8 0c d8 ff ff       	call   5950 <__stack_chk_fail@plt>
    8144:	c9                   	leave
    8145:	c3                   	ret

0000000000008146 <_ZSt3maxImERKT_S2_S2_>:
   *  preprocessor macro.
  */
  template<typename _Tp>
    _GLIBCXX14_CONSTEXPR
    inline const _Tp&
    max(const _Tp& __a, const _Tp& __b)
    8146:	f3 0f 1e fa          	endbr64
    814a:	55                   	push   %rbp
    814b:	48 89 e5             	mov    %rsp,%rbp
    814e:	48 89 7d f8          	mov    %rdi,-0x8(%rbp)
    8152:	48 89 75 f0          	mov    %rsi,-0x10(%rbp)
    {
      // concept requirements
      __glibcxx_function_requires(_LessThanComparableConcept<_Tp>)
      //return  __a < __b ? __b : __a;
      if (__a < __b)
    8156:	48 8b 45 f8          	mov    -0x8(%rbp),%rax
    815a:	48 8b 10             	mov    (%rax),%rdx
    815d:	48 8b 45 f0          	mov    -0x10(%rbp),%rax
    8161:	48 8b 00             	mov    (%rax),%rax
    8164:	48 39 c2             	cmp    %rax,%rdx
    8167:	73 06                	jae    816f <_ZSt3maxImERKT_S2_S2_+0x29>
	return __b;
    8169:	48 8b 45 f0          	mov    -0x10(%rbp),%rax
    816d:	eb 04                	jmp    8173 <_ZSt3maxImERKT_S2_S2_+0x2d>
      return __a;
    816f:	48 8b 45 f8          	mov    -0x8(%rbp),%rax
    }
    8173:	5d                   	pop    %rbp
    8174:	c3                   	ret
    8175:	90                   	nop

0000000000008176 <_ZNKSt6vectorIiSaIiEE12_M_check_lenEmPKc>:
#endif

      // Called by _M_fill_insert, _M_insert_aux etc.
      _GLIBCXX20_CONSTEXPR
      size_type
      _M_check_len(size_type __n, const char* __s) const
    8176:	f3 0f 1e fa          	endbr64
    817a:	55                   	push   %rbp
    817b:	48 89 e5             	mov    %rsp,%rbp
    817e:	53                   	push   %rbx
    817f:	48 83 ec 48          	sub    $0x48,%rsp
    8183:	48 89 7d c8          	mov    %rdi,-0x38(%rbp)
    8187:	48 89 75 c0          	mov    %rsi,-0x40(%rbp)
    818b:	48 89 55 b8          	mov    %rdx,-0x48(%rbp)
    818f:	64 48 8b 04 25 28 00 	mov    %fs:0x28,%rax
    8196:	00 00 
    8198:	48 89 45 e8          	mov    %rax,-0x18(%rbp)
    819c:	31 c0                	xor    %eax,%eax
      {
	if (max_size() - size() < __n)
    819e:	48 8b 45 c8          	mov    -0x38(%rbp),%rax
    81a2:	48 89 c7             	mov    %rax,%rdi
    81a5:	e8 d8 14 00 00       	call   9682 <_ZNKSt6vectorIiSaIiEE8max_sizeEv>
    81aa:	48 89 c3             	mov    %rax,%rbx
    81ad:	48 8b 45 c8          	mov    -0x38(%rbp),%rax
    81b1:	48 89 c7             	mov    %rax,%rdi
    81b4:	e8 f3 f4 ff ff       	call   76ac <_ZNKSt6vectorIiSaIiEE4sizeEv>
    81b9:	48 29 c3             	sub    %rax,%rbx
    81bc:	48 89 da             	mov    %rbx,%rdx
    81bf:	48 8b 45 c0          	mov    -0x40(%rbp),%rax
    81c3:	48 39 c2             	cmp    %rax,%rdx
    81c6:	0f 92 c0             	setb   %al
    81c9:	84 c0                	test   %al,%al
    81cb:	74 0c                	je     81d9 <_ZNKSt6vectorIiSaIiEE12_M_check_lenEmPKc+0x63>
	  __throw_length_error(__N(__s));
    81cd:	48 8b 45 b8          	mov    -0x48(%rbp),%rax
    81d1:	48 89 c7             	mov    %rax,%rdi
    81d4:	e8 67 d5 ff ff       	call   5740 <_ZSt20__throw_length_errorPKc@plt>

	const size_type __len = size() + (std::max)(size(), __n);
    81d9:	48 8b 45 c8          	mov    -0x38(%rbp),%rax
    81dd:	48 89 c7             	mov    %rax,%rdi
    81e0:	e8 c7 f4 ff ff       	call   76ac <_ZNKSt6vectorIiSaIiEE4sizeEv>
    81e5:	48 89 c3             	mov    %rax,%rbx
    81e8:	48 8b 45 c8          	mov    -0x38(%rbp),%rax
    81ec:	48 89 c7             	mov    %rax,%rdi
    81ef:	e8 b8 f4 ff ff       	call   76ac <_ZNKSt6vectorIiSaIiEE4sizeEv>
    81f4:	48 89 45 d8          	mov    %rax,-0x28(%rbp)
    81f8:	48 8d 55 c0          	lea    -0x40(%rbp),%rdx
    81fc:	48 8d 45 d8          	lea    -0x28(%rbp),%rax
    8200:	48 89 d6             	mov    %rdx,%rsi
    8203:	48 89 c7             	mov    %rax,%rdi
    8206:	e8 3b ff ff ff       	call   8146 <_ZSt3maxImERKT_S2_S2_>
    820b:	48 8b 00             	mov    (%rax),%rax
    820e:	48 01 d8             	add    %rbx,%rax
    8211:	48 89 45 e0          	mov    %rax,-0x20(%rbp)
	return (__len < size() || __len > max_size()) ? max_size() : __len;
    8215:	48 8b 45 c8          	mov    -0x38(%rbp),%rax
    8219:	48 89 c7             	mov    %rax,%rdi
    821c:	e8 8b f4 ff ff       	call   76ac <_ZNKSt6vectorIiSaIiEE4sizeEv>
    8221:	48 39 45 e0          	cmp    %rax,-0x20(%rbp)
    8225:	72 12                	jb     8239 <_ZNKSt6vectorIiSaIiEE12_M_check_lenEmPKc+0xc3>
    8227:	48 8b 45 c8          	mov    -0x38(%rbp),%rax
    822b:	48 89 c7             	mov    %rax,%rdi
    822e:	e8 4f 14 00 00       	call   9682 <_ZNKSt6vectorIiSaIiEE8max_sizeEv>
    8233:	48 3b 45 e0          	cmp    -0x20(%rbp),%rax
    8237:	73 0e                	jae    8247 <_ZNKSt6vectorIiSaIiEE12_M_check_lenEmPKc+0xd1>
    8239:	48 8b 45 c8          	mov    -0x38(%rbp),%rax
    823d:	48 89 c7             	mov    %rax,%rdi
    8240:	e8 3d 14 00 00       	call   9682 <_ZNKSt6vectorIiSaIiEE8max_sizeEv>
    8245:	eb 04                	jmp    824b <_ZNKSt6vectorIiSaIiEE12_M_check_lenEmPKc+0xd5>
    8247:	48 8b 45 e0          	mov    -0x20(%rbp),%rax
      }
    824b:	48 8b 55 e8          	mov    -0x18(%rbp),%rdx
    824f:	64 48 2b 14 25 28 00 	sub    %fs:0x28,%rdx
    8256:	00 00 
    8258:	74 05                	je     825f <_ZNKSt6vectorIiSaIiEE12_M_check_lenEmPKc+0xe9>
    825a:	e8 f1 d6 ff ff       	call   5950 <__stack_chk_fail@plt>
    825f:	48 8b 5d f8          	mov    -0x8(%rbp),%rbx
    8263:	c9                   	leave
    8264:	c3                   	ret

0000000000008265 <_ZN9__gnu_cxxmiIPiSt6vectorIiSaIiEEEENS_17__normal_iteratorIT_T0_E15difference_typeERKS8_SB_>:
    { return __lhs.base() - __rhs.base(); }

  template<typename _Iterator, typename _Container>
    _GLIBCXX_NODISCARD _GLIBCXX20_CONSTEXPR
    inline typename __normal_iterator<_Iterator, _Container>::difference_type
    operator-(const __normal_iterator<_Iterator, _Container>& __lhs,
    8265:	f3 0f 1e fa          	endbr64
    8269:	55                   	push   %rbp
    826a:	48 89 e5             	mov    %rsp,%rbp
    826d:	53                   	push   %rbx
    826e:	48 83 ec 18          	sub    $0x18,%rsp
    8272:	48 89 7d e8          	mov    %rdi,-0x18(%rbp)
    8276:	48 89 75 e0          	mov    %rsi,-0x20(%rbp)
	      const __normal_iterator<_Iterator, _Container>& __rhs)
    _GLIBCXX_NOEXCEPT
    { return __lhs.base() - __rhs.base(); }
    827a:	48 8b 45 e8          	mov    -0x18(%rbp),%rax
    827e:	48 89 c7             	mov    %rax,%rdi
    8281:	e8 22 14 00 00       	call   96a8 <_ZNK9__gnu_cxx17__normal_iteratorIPiSt6vectorIiSaIiEEE4baseEv>
    8286:	48 8b 18             	mov    (%rax),%rbx
    8289:	48 8b 45 e0          	mov    -0x20(%rbp),%rax
    828d:	48 89 c7             	mov    %rax,%rdi
    8290:	e8 13 14 00 00       	call   96a8 <_ZNK9__gnu_cxx17__normal_iteratorIPiSt6vectorIiSaIiEEE4baseEv>
    8295:	48 8b 00             	mov    (%rax),%rax
    8298:	48 89 da             	mov    %rbx,%rdx
    829b:	48 29 c2             	sub    %rax,%rdx
    829e:	48 89 d0             	mov    %rdx,%rax
    82a1:	48 c1 f8 02          	sar    $0x2,%rax
    82a5:	48 8b 5d f8          	mov    -0x8(%rbp),%rbx
    82a9:	c9                   	leave
    82aa:	c3                   	ret
    82ab:	90                   	nop

00000000000082ac <_ZNSt6vectorIiSaIiEE5beginEv>:
      begin() _GLIBCXX_NOEXCEPT
    82ac:	f3 0f 1e fa          	endbr64
    82b0:	55                   	push   %rbp
    82b1:	48 89 e5             	mov    %rsp,%rbp
    82b4:	48 83 ec 20          	sub    $0x20,%rsp
    82b8:	48 89 7d e8          	mov    %rdi,-0x18(%rbp)
    82bc:	64 48 8b 04 25 28 00 	mov    %fs:0x28,%rax
    82c3:	00 00 
    82c5:	48 89 45 f8          	mov    %rax,-0x8(%rbp)
    82c9:	31 c0                	xor    %eax,%eax
      { return iterator(this->_M_impl._M_start); }
    82cb:	48 8b 55 e8          	mov    -0x18(%rbp),%rdx
    82cf:	48 8d 45 f0          	lea    -0x10(%rbp),%rax
    82d3:	48 89 d6             	mov    %rdx,%rsi
    82d6:	48 89 c7             	mov    %rax,%rdi
    82d9:	e8 82 13 00 00       	call   9660 <_ZN9__gnu_cxx17__normal_iteratorIPiSt6vectorIiSaIiEEEC1ERKS1_>
    82de:	48 8b 45 f0          	mov    -0x10(%rbp),%rax
    82e2:	48 8b 55 f8          	mov    -0x8(%rbp),%rdx
    82e6:	64 48 2b 14 25 28 00 	sub    %fs:0x28,%rdx
    82ed:	00 00 
    82ef:	74 05                	je     82f6 <_ZNSt6vectorIiSaIiEE5beginEv+0x4a>
    82f1:	e8 5a d6 ff ff       	call   5950 <__stack_chk_fail@plt>
    82f6:	c9                   	leave
    82f7:	c3                   	ret

00000000000082f8 <_ZNSt6vectorIiSaIiEE17_M_realloc_insertIJRKiEEEvN9__gnu_cxx17__normal_iteratorIPiS1_EEDpOT_>:
#if __cplusplus >= 201103L
  template<typename _Tp, typename _Alloc>
    template<typename... _Args>
      _GLIBCXX20_CONSTEXPR
      void
      vector<_Tp, _Alloc>::
    82f8:	f3 0f 1e fa          	endbr64
    82fc:	55                   	push   %rbp
    82fd:	48 89 e5             	mov    %rsp,%rbp
    8300:	53                   	push   %rbx
    8301:	48 83 ec 68          	sub    $0x68,%rsp
    8305:	48 89 7d a8          	mov    %rdi,-0x58(%rbp)
    8309:	48 89 75 a0          	mov    %rsi,-0x60(%rbp)
    830d:	48 89 55 98          	mov    %rdx,-0x68(%rbp)
    8311:	64 48 8b 04 25 28 00 	mov    %fs:0x28,%rax
    8318:	00 00 
    831a:	48 89 45 e8          	mov    %rax,-0x18(%rbp)
    831e:	31 c0                	xor    %eax,%eax
    vector<_Tp, _Alloc>::
    _M_realloc_insert(iterator __position, const _Tp& __x)
#endif
    {
      const size_type __len =
	_M_check_len(size_type(1), "vector::_M_realloc_insert");
    8320:	48 8b 45 a8          	mov    -0x58(%rbp),%rax
    8324:	48 8d 15 f4 dc 01 00 	lea    0x1dcf4(%rip),%rdx        # 2601f <_ZZNSt19_Sp_make_shared_tag5_S_tiEvE5__tag+0x17>
    832b:	be 01 00 00 00       	mov    $0x1,%esi
    8330:	48 89 c7             	mov    %rax,%rdi
    8333:	e8 3e fe ff ff       	call   8176 <_ZNKSt6vectorIiSaIiEE12_M_check_lenEmPKc>
    8338:	48 89 45 b8          	mov    %rax,-0x48(%rbp)
      pointer __old_start = this->_M_impl._M_start;
    833c:	48 8b 45 a8          	mov    -0x58(%rbp),%rax
    8340:	48 8b 00             	mov    (%rax),%rax
    8343:	48 89 45 c0          	mov    %rax,-0x40(%rbp)
      pointer __old_finish = this->_M_impl._M_finish;
    8347:	48 8b 45 a8          	mov    -0x58(%rbp),%rax
    834b:	48 8b 40 08          	mov    0x8(%rax),%rax
    834f:	48 89 45 c8          	mov    %rax,-0x38(%rbp)
      const size_type __elems_before = __position - begin();
    8353:	48 8b 45 a8          	mov    -0x58(%rbp),%rax
    8357:	48 89 c7             	mov    %rax,%rdi
    835a:	e8 4d ff ff ff       	call   82ac <_ZNSt6vectorIiSaIiEE5beginEv>
    835f:	48 89 45 b0          	mov    %rax,-0x50(%rbp)
    8363:	48 8d 55 b0          	lea    -0x50(%rbp),%rdx
    8367:	48 8d 45 a0          	lea    -0x60(%rbp),%rax
    836b:	48 89 d6             	mov    %rdx,%rsi
    836e:	48 89 c7             	mov    %rax,%rdi
    8371:	e8 ef fe ff ff       	call   8265 <_ZN9__gnu_cxxmiIPiSt6vectorIiSaIiEEEENS_17__normal_iteratorIT_T0_E15difference_typeERKS8_SB_>
    8376:	48 89 45 d0          	mov    %rax,-0x30(%rbp)
      pointer __new_start(this->_M_allocate(__len));
    837a:	48 8b 45 a8          	mov    -0x58(%rbp),%rax
    837e:	48 8b 55 b8          	mov    -0x48(%rbp),%rdx
    8382:	48 89 d6             	mov    %rdx,%rsi
    8385:	48 89 c7             	mov    %rax,%rdi
    8388:	e8 2d 13 00 00       	call   96ba <_ZNSt12_Vector_baseIiSaIiEE11_M_allocateEm>
    838d:	48 89 45 d8          	mov    %rax,-0x28(%rbp)
      pointer __new_finish(__new_start);
    8391:	48 8b 45 d8          	mov    -0x28(%rbp),%rax
    8395:	48 89 45 e0          	mov    %rax,-0x20(%rbp)
	  // The order of the three operations is dictated by the C++11
	  // case, where the moves could alter a new element belonging
	  // to the existing vector.  This is an issue only for callers
	  // taking the element by lvalue ref (see last bullet of C++11
	  // [res.on.arguments]).
	  _Alloc_traits::construct(this->_M_impl,
    8399:	48 8b 45 98          	mov    -0x68(%rbp),%rax
    839d:	48 89 c7             	mov    %rax,%rdi
    83a0:	e8 66 12 00 00       	call   960b <_ZSt7forwardIRKiEOT_RNSt16remove_referenceIS2_E4typeE>
    83a5:	48 89 c2             	mov    %rax,%rdx
				   __new_start + __elems_before,
    83a8:	48 8b 45 d0          	mov    -0x30(%rbp),%rax
    83ac:	48 8d 0c 85 00 00 00 	lea    0x0(,%rax,4),%rcx
    83b3:	00 
	  _Alloc_traits::construct(this->_M_impl,
    83b4:	48 8b 45 d8          	mov    -0x28(%rbp),%rax
    83b8:	48 01 c1             	add    %rax,%rcx
    83bb:	48 8b 45 a8          	mov    -0x58(%rbp),%rax
    83bf:	48 89 ce             	mov    %rcx,%rsi
    83c2:	48 89 c7             	mov    %rax,%rdi
    83c5:	e8 f3 fc ff ff       	call   80bd <_ZNSt16allocator_traitsISaIiEE9constructIiJRKiEEEvRS0_PT_DpOT0_>
#if __cplusplus >= 201103L
				   std::forward<_Args>(__args)...);
#else
				   __x);
#endif
	  __new_finish = pointer();
    83ca:	48 c7 45 e0 00 00 00 	movq   $0x0,-0x20(%rbp)
    83d1:	00 

#if __cplusplus >= 201103L
	  if _GLIBCXX17_CONSTEXPR (_S_use_relocate())
	    {
	      __new_finish = _S_relocate(__old_start, __position.base(),
					 __new_start, _M_get_Tp_allocator());
    83d2:	48 8b 45 a8          	mov    -0x58(%rbp),%rax
    83d6:	48 89 c7             	mov    %rax,%rdi
    83d9:	e8 4a 13 00 00       	call   9728 <_ZNSt12_Vector_baseIiSaIiEE19_M_get_Tp_allocatorEv>
    83de:	48 89 c3             	mov    %rax,%rbx
	      __new_finish = _S_relocate(__old_start, __position.base(),
    83e1:	48 8d 45 a0          	lea    -0x60(%rbp),%rax
    83e5:	48 89 c7             	mov    %rax,%rdi
    83e8:	e8 bb 12 00 00       	call   96a8 <_ZNK9__gnu_cxx17__normal_iteratorIPiSt6vectorIiSaIiEEE4baseEv>
    83ed:	48 8b 30             	mov    (%rax),%rsi
    83f0:	48 8b 55 d8          	mov    -0x28(%rbp),%rdx
    83f4:	48 8b 45 c0          	mov    -0x40(%rbp),%rax
    83f8:	48 89 d9             	mov    %rbx,%rcx
    83fb:	48 89 c7             	mov    %rax,%rdi
    83fe:	e8 ee 12 00 00       	call   96f1 <_ZNSt6vectorIiSaIiEE11_S_relocateEPiS2_S2_RS0_>
    8403:	48 89 45 e0          	mov    %rax,-0x20(%rbp)

	      ++__new_finish;
    8407:	48 83 45 e0 04       	addq   $0x4,-0x20(%rbp)

	      __new_finish = _S_relocate(__position.base(), __old_finish,
					 __new_finish, _M_get_Tp_allocator());
    840c:	48 8b 45 a8          	mov    -0x58(%rbp),%rax
    8410:	48 89 c7             	mov    %rax,%rdi
    8413:	e8 10 13 00 00       	call   9728 <_ZNSt12_Vector_baseIiSaIiEE19_M_get_Tp_allocatorEv>
    8418:	48 89 c3             	mov    %rax,%rbx
	      __new_finish = _S_relocate(__position.base(), __old_finish,
    841b:	48 8d 45 a0          	lea    -0x60(%rbp),%rax
    841f:	48 89 c7             	mov    %rax,%rdi
    8422:	e8 81 12 00 00       	call   96a8 <_ZNK9__gnu_cxx17__normal_iteratorIPiSt6vectorIiSaIiEEE4baseEv>
    8427:	48 8b 00             	mov    (%rax),%rax
    842a:	48 8b 55 e0          	mov    -0x20(%rbp),%rdx
    842e:	48 8b 75 c8          	mov    -0x38(%rbp),%rsi
    8432:	48 89 d9             	mov    %rbx,%rcx
    8435:	48 89 c7             	mov    %rax,%rdi
    8438:	e8 b4 12 00 00       	call   96f1 <_ZNSt6vectorIiSaIiEE11_S_relocateEPiS2_S2_RS0_>
    843d:	48 89 45 e0          	mov    %rax,-0x20(%rbp)
#if __cplusplus >= 201103L
      if _GLIBCXX17_CONSTEXPR (!_S_use_relocate())
#endif
	std::_Destroy(__old_start, __old_finish, _M_get_Tp_allocator());
      _GLIBCXX_ASAN_ANNOTATE_REINIT;
      _M_deallocate(__old_start,
    8441:	48 8b 45 a8          	mov    -0x58(%rbp),%rax
		    this->_M_impl._M_end_of_storage - __old_start);
    8445:	48 8b 55 a8          	mov    -0x58(%rbp),%rdx
    8449:	48 8b 52 10          	mov    0x10(%rdx),%rdx
    844d:	48 2b 55 c0          	sub    -0x40(%rbp),%rdx
    8451:	48 c1 fa 02          	sar    $0x2,%rdx
      _M_deallocate(__old_start,
    8455:	48 8b 4d c0          	mov    -0x40(%rbp),%rcx
    8459:	48 89 ce             	mov    %rcx,%rsi
    845c:	48 89 c7             	mov    %rax,%rdi
    845f:	e8 28 13 00 00       	call   978c <_ZNSt12_Vector_baseIiSaIiEE13_M_deallocateEPim>
      this->_M_impl._M_start = __new_start;
    8464:	48 8b 45 a8          	mov    -0x58(%rbp),%rax
    8468:	48 8b 55 d8          	mov    -0x28(%rbp),%rdx
    846c:	48 89 10             	mov    %rdx,(%rax)
